
mm.riscv:     file format elf64-littleriscv


Disassembly of section .text:

0000000080001048 <lfsr>:
    80001048:	00155793          	srli	a5,a0,0x1
    8000104c:	00f54533          	xor	a0,a0,a5
    80001050:	00157513          	andi	a0,a0,1
    80001054:	03e51513          	slli	a0,a0,0x3e
    80001058:	00f56533          	or	a0,a0,a5
    8000105c:	00008067          	ret

0000000080001060 <barrier>:
    80001060:	0330000f          	fence	rw,rw
    80001064:	00022683          	lw	a3,0(tp) # 0 <_tdata_begin>
    80001068:	00004717          	auipc	a4,0x4
    8000106c:	a8c70713          	addi	a4,a4,-1396 # 80004af4 <count.3592>
    80001070:	00100613          	li	a2,1
    80001074:	0016b693          	seqz	a3,a3
    80001078:	00d22023          	sw	a3,0(tp) # 0 <_tdata_begin>
    8000107c:	06c726af          	amoadd.w.sc	a3,a2,(a4)
    80001080:	fff5051b          	addiw	a0,a0,-1
    80001084:	00a68e63          	beq	a3,a0,800010a0 <barrier+0x40>
    80001088:	00022703          	lw	a4,0(tp) # 0 <_tdata_begin>
    8000108c:	00004797          	auipc	a5,0x4
    80001090:	a647a783          	lw	a5,-1436(a5) # 80004af0 <sense.3591>
    80001094:	fee79ce3          	bne	a5,a4,8000108c <barrier+0x2c>
    80001098:	0330000f          	fence	rw,rw
    8000109c:	00008067          	ret
    800010a0:	00022783          	lw	a5,0(tp) # 0 <_tdata_begin>
    800010a4:	00004717          	auipc	a4,0x4
    800010a8:	a4072823          	sw	zero,-1456(a4) # 80004af4 <count.3592>
    800010ac:	00004717          	auipc	a4,0x4
    800010b0:	a4f72223          	sw	a5,-1468(a4) # 80004af0 <sense.3591>
    800010b4:	fe5ff06f          	j	80001098 <barrier+0x38>

00000000800010b8 <thread_entry>:
    800010b8:	fffff7b7          	lui	a5,0xfffff
    800010bc:	f7010113          	addi	sp,sp,-144
    800010c0:	df078713          	addi	a4,a5,-528 # ffffffffffffedf0 <_gp+0xffffffff7fff9d58>
    800010c4:	08813023          	sd	s0,128(sp)
    800010c8:	06913c23          	sd	s1,120(sp)
    800010cc:	07213823          	sd	s2,112(sp)
    800010d0:	07313423          	sd	s3,104(sp)
    800010d4:	07413023          	sd	s4,96(sp)
    800010d8:	05513c23          	sd	s5,88(sp)
    800010dc:	05713423          	sd	s7,72(sp)
    800010e0:	05813023          	sd	s8,64(sp)
    800010e4:	03a13823          	sd	s10,48(sp)
    800010e8:	d3078793          	addi	a5,a5,-720
    800010ec:	08113423          	sd	ra,136(sp)
    800010f0:	05613823          	sd	s6,80(sp)
    800010f4:	03913c23          	sd	s9,56(sp)
    800010f8:	03b13423          	sd	s11,40(sp)
    800010fc:	09010413          	addi	s0,sp,144
    80001100:	00e10133          	add	sp,sp,a4
    80001104:	01010c13          	addi	s8,sp,16
    80001108:	00001d37          	lui	s10,0x1
    8000110c:	00f10133          	add	sp,sp,a5
    80001110:	01010993          	addi	s3,sp,16
    80001114:	200d0d13          	addi	s10,s10,512 # 1200 <_tbss_end+0x117c>
    80001118:	00f10133          	add	sp,sp,a5
    8000111c:	00050a13          	mv	s4,a0
    80001120:	00058a93          	mv	s5,a1
    80001124:	01010b93          	addi	s7,sp,16
    80001128:	000c0913          	mv	s2,s8
    8000112c:	01ac0d33          	add	s10,s8,s10
    80001130:	000c0493          	mv	s1,s8
    80001134:	00003517          	auipc	a0,0x3
    80001138:	76453503          	ld	a0,1892(a0) # 80004898 <main+0x38>
    8000113c:	0c048c93          	addi	s9,s1,192
    80001140:	f09ff0ef          	jal	80001048 <lfsr>
    80001144:	d23577d3          	fcvt.d.lu	fa5,a0
    80001148:	00848b13          	addi	s6,s1,8
    8000114c:	00f4b027          	fsd	fa5,0(s1)
    80001150:	ef9ff0ef          	jal	80001048 <lfsr>
    80001154:	d23577d3          	fcvt.d.lu	fa5,a0
    80001158:	00f4b427          	fsd	fa5,8(s1)
    8000115c:	eedff0ef          	jal	80001048 <lfsr>
    80001160:	d23577d3          	fcvt.d.lu	fa5,a0
    80001164:	00f4b827          	fsd	fa5,16(s1)
    80001168:	ee1ff0ef          	jal	80001048 <lfsr>
    8000116c:	d23577d3          	fcvt.d.lu	fa5,a0
    80001170:	038b0493          	addi	s1,s6,56
    80001174:	00fb3827          	fsd	fa5,16(s6)
    80001178:	ed1ff0ef          	jal	80001048 <lfsr>
    8000117c:	d23577d3          	fcvt.d.lu	fa5,a0
    80001180:	00fb3c27          	fsd	fa5,24(s6)
    80001184:	ec5ff0ef          	jal	80001048 <lfsr>
    80001188:	d23577d3          	fcvt.d.lu	fa5,a0
    8000118c:	02fb3027          	fsd	fa5,32(s6)
    80001190:	eb9ff0ef          	jal	80001048 <lfsr>
    80001194:	d23577d3          	fcvt.d.lu	fa5,a0
    80001198:	02fb3427          	fsd	fa5,40(s6)
    8000119c:	eadff0ef          	jal	80001048 <lfsr>
    800011a0:	d23577d3          	fcvt.d.lu	fa5,a0
    800011a4:	02fb3827          	fsd	fa5,48(s6)
    800011a8:	f9949ce3          	bne	s1,s9,80001140 <thread_entry+0x88>
    800011ac:	f89d18e3          	bne	s10,s1,8000113c <thread_entry+0x84>
    800011b0:	00001d37          	lui	s10,0x1
    800011b4:	2c0d0d13          	addi	s10,s10,704 # 12c0 <_tbss_end+0x123c>
    800011b8:	01a98d33          	add	s10,s3,s10
    800011bc:	00098493          	mv	s1,s3
    800011c0:	e89ff0ef          	jal	80001048 <lfsr>
    800011c4:	d23577d3          	fcvt.d.lu	fa5,a0
    800011c8:	0c848c93          	addi	s9,s1,200
    800011cc:	00848493          	addi	s1,s1,8
    800011d0:	fef4bc27          	fsd	fa5,-8(s1)
    800011d4:	e75ff0ef          	jal	80001048 <lfsr>
    800011d8:	d23577d3          	fcvt.d.lu	fa5,a0
    800011dc:	00848b13          	addi	s6,s1,8
    800011e0:	00f4b027          	fsd	fa5,0(s1)
    800011e4:	e65ff0ef          	jal	80001048 <lfsr>
    800011e8:	d23577d3          	fcvt.d.lu	fa5,a0
    800011ec:	00f4b427          	fsd	fa5,8(s1)
    800011f0:	e59ff0ef          	jal	80001048 <lfsr>
    800011f4:	d23577d3          	fcvt.d.lu	fa5,a0
    800011f8:	00f4b827          	fsd	fa5,16(s1)
    800011fc:	e4dff0ef          	jal	80001048 <lfsr>
    80001200:	d23577d3          	fcvt.d.lu	fa5,a0
    80001204:	038b0493          	addi	s1,s6,56
    80001208:	00fb3827          	fsd	fa5,16(s6)
    8000120c:	e3dff0ef          	jal	80001048 <lfsr>
    80001210:	d23577d3          	fcvt.d.lu	fa5,a0
    80001214:	00fb3c27          	fsd	fa5,24(s6)
    80001218:	e31ff0ef          	jal	80001048 <lfsr>
    8000121c:	d23577d3          	fcvt.d.lu	fa5,a0
    80001220:	02fb3027          	fsd	fa5,32(s6)
    80001224:	e25ff0ef          	jal	80001048 <lfsr>
    80001228:	d23577d3          	fcvt.d.lu	fa5,a0
    8000122c:	02fb3427          	fsd	fa5,40(s6)
    80001230:	e19ff0ef          	jal	80001048 <lfsr>
    80001234:	d23577d3          	fcvt.d.lu	fa5,a0
    80001238:	02fb3827          	fsd	fa5,48(s6)
    8000123c:	f9949ce3          	bne	s1,s9,800011d4 <thread_entry+0x11c>
    80001240:	f9a490e3          	bne	s1,s10,800011c0 <thread_entry+0x108>
    80001244:	00001637          	lui	a2,0x1
    80001248:	2c060613          	addi	a2,a2,704 # 12c0 <_tbss_end+0x123c>
    8000124c:	00000593          	li	a1,0
    80001250:	000b8513          	mv	a0,s7
    80001254:	358030ef          	jal	800045ac <memset>
    80001258:	00800493          	li	s1,8
    8000125c:	01900d93          	li	s11,25
    80001260:	01800d13          	li	s10,24
    80001264:	b0202b73          	csrr	s6,minstret
    80001268:	b0002cf3          	csrr	s9,mcycle
    8000126c:	01900813          	li	a6,25
    80001270:	01800613          	li	a2,24
    80001274:	01b13023          	sd	s11,0(sp)
    80001278:	000b8893          	mv	a7,s7
    8000127c:	00098793          	mv	a5,s3
    80001280:	000d0713          	mv	a4,s10
    80001284:	000c0693          	mv	a3,s8
    80001288:	00080593          	mv	a1,a6
    8000128c:	00060513          	mv	a0,a2
    80001290:	364020ef          	jal	800035f4 <mm>
    80001294:	b0202373          	csrr	t1,minstret
    80001298:	b00027f3          	csrr	a5,mcycle
    8000129c:	fff4849b          	addiw	s1,s1,-1
    800012a0:	fc0492e3          	bnez	s1,80001264 <thread_entry+0x1ac>
    800012a4:	f8643423          	sd	t1,-120(s0)
    800012a8:	41978cb3          	sub	s9,a5,s9
    800012ac:	0ff0000f          	fence
    800012b0:	01800893          	li	a7,24
    800012b4:	00088793          	mv	a5,a7
    800012b8:	01900813          	li	a6,25
    800012bc:	00600713          	li	a4,6
    800012c0:	00500693          	li	a3,5
    800012c4:	00400613          	li	a2,4
    800012c8:	000a0593          	mv	a1,s4
    800012cc:	00003517          	auipc	a0,0x3
    800012d0:	5e450513          	addi	a0,a0,1508 # 800048b0 <main+0x50>
    800012d4:	1c0030ef          	jal	80004494 <printf>
    800012d8:	f8843303          	ld	t1,-120(s0)
    800012dc:	000a0593          	mv	a1,s4
    800012e0:	00003517          	auipc	a0,0x3
    800012e4:	60050513          	addi	a0,a0,1536 # 800048e0 <main+0x80>
    800012e8:	4163063b          	subw	a2,t1,s6
    800012ec:	1a8030ef          	jal	80004494 <printf>
    800012f0:	000c861b          	sext.w	a2,s9
    800012f4:	000a0593          	mv	a1,s4
    800012f8:	00003517          	auipc	a0,0x3
    800012fc:	60050513          	addi	a0,a0,1536 # 800048f8 <main+0x98>
    80001300:	194030ef          	jal	80004494 <printf>
    80001304:	00007637          	lui	a2,0x7
    80001308:	0806061b          	addiw	a2,a2,128
    8000130c:	000a0593          	mv	a1,s4
    80001310:	00003517          	auipc	a0,0x3
    80001314:	5f850513          	addi	a0,a0,1528 # 80004908 <main+0xa8>
    80001318:	17c030ef          	jal	80004494 <printf>
    8000131c:	01b77637          	lui	a2,0x1b77
    80001320:	40060613          	addi	a2,a2,1024 # 1b77400 <_tbss_end+0x1b7737c>
    80001324:	03965633          	divu	a2,a2,s9
    80001328:	000a0593          	mv	a1,s4
    8000132c:	00003517          	auipc	a0,0x3
    80001330:	5ec50513          	addi	a0,a0,1516 # 80004918 <main+0xb8>
    80001334:	160030ef          	jal	80004494 <printf>
    80001338:	00001e37          	lui	t3,0x1
    8000133c:	00000613          	li	a2,0
    80001340:	00003797          	auipc	a5,0x3
    80001344:	5607b507          	fld	fa0,1376(a5) # 800048a0 <main+0x40>
    80001348:	00003797          	auipc	a5,0x3
    8000134c:	5607b587          	fld	fa1,1376(a5) # 800048a8 <main+0x48>
    80001350:	2c0e0e13          	addi	t3,t3,704 # 12c0 <_tbss_end+0x123c>
    80001354:	01900e93          	li	t4,25
    80001358:	01800f13          	li	t5,24
    8000135c:	00098893          	mv	a7,s3
    80001360:	000b8313          	mv	t1,s7
    80001364:	00000693          	li	a3,0
    80001368:	f20007d3          	fmv.d.x	fa5,zero
    8000136c:	01c88833          	add	a6,a7,t3
    80001370:	00088593          	mv	a1,a7
    80001374:	00090513          	mv	a0,s2
    80001378:	00053687          	fld	fa3,0(a0)
    8000137c:	0005b707          	fld	fa4,0(a1)
    80001380:	00850713          	addi	a4,a0,8
    80001384:	0c858793          	addi	a5,a1,200
    80001388:	7ae6f7c3          	fmadd.d	fa5,fa3,fa4,fa5
    8000138c:	00853687          	fld	fa3,8(a0)
    80001390:	0c85b707          	fld	fa4,200(a1)
    80001394:	64058593          	addi	a1,a1,1600
    80001398:	04050513          	addi	a0,a0,64
    8000139c:	7ae6f7c3          	fmadd.d	fa5,fa3,fa4,fa5
    800013a0:	fd053687          	fld	fa3,-48(a0)
    800013a4:	b505b707          	fld	fa4,-1200(a1)
    800013a8:	7ae6f7c3          	fmadd.d	fa5,fa3,fa4,fa5
    800013ac:	01073687          	fld	fa3,16(a4)
    800013b0:	1907b707          	fld	fa4,400(a5)
    800013b4:	7ae6f7c3          	fmadd.d	fa5,fa3,fa4,fa5
    800013b8:	01873687          	fld	fa3,24(a4)
    800013bc:	2587b707          	fld	fa4,600(a5)
    800013c0:	7ae6f7c3          	fmadd.d	fa5,fa3,fa4,fa5
    800013c4:	02073687          	fld	fa3,32(a4)
    800013c8:	3207b707          	fld	fa4,800(a5)
    800013cc:	7ae6f7c3          	fmadd.d	fa5,fa3,fa4,fa5
    800013d0:	02873687          	fld	fa3,40(a4)
    800013d4:	3e87b707          	fld	fa4,1000(a5)
    800013d8:	7ae6f7c3          	fmadd.d	fa5,fa3,fa4,fa5
    800013dc:	03073687          	fld	fa3,48(a4)
    800013e0:	4b07b707          	fld	fa4,1200(a5)
    800013e4:	7ae6f7c3          	fmadd.d	fa5,fa3,fa4,fa5
    800013e8:	f8b818e3          	bne	a6,a1,80001378 <thread_entry+0x2c0>
    800013ec:	12a7f7d3          	fmul.d	fa5,fa5,fa0
    800013f0:	00033607          	fld	fa2,0(t1)
    800013f4:	12b7f6d3          	fmul.d	fa3,fa5,fa1
    800013f8:	0af67753          	fsub.d	fa4,fa2,fa5
    800013fc:	22d6a6d3          	fabs.d	fa3,fa3
    80001400:	22e72753          	fabs.d	fa4,fa4
    80001404:	a2e697d3          	flt.d	a5,fa3,fa4
    80001408:	02079a63          	bnez	a5,8000143c <thread_entry+0x384>
    8000140c:	00168693          	addi	a3,a3,1
    80001410:	00830313          	addi	t1,t1,8
    80001414:	00888893          	addi	a7,a7,8
    80001418:	f5d698e3          	bne	a3,t4,80001368 <thread_entry+0x2b0>
    8000141c:	00160613          	addi	a2,a2,1
    80001420:	0c090913          	addi	s2,s2,192
    80001424:	0c8b8b93          	addi	s7,s7,200
    80001428:	f3e61ae3          	bne	a2,t5,8000135c <thread_entry+0x2a4>
    8000142c:	000a8513          	mv	a0,s5
    80001430:	c31ff0ef          	jal	80001060 <barrier>
    80001434:	00000513          	li	a0,0
    80001438:	771020ef          	jal	800043a8 <exit>
    8000143c:	e20787d3          	fmv.x.d	a5,fa5
    80001440:	e2060753          	fmv.x.d	a4,fa2
    80001444:	000a0593          	mv	a1,s4
    80001448:	00003517          	auipc	a0,0x3
    8000144c:	4e850513          	addi	a0,a0,1256 # 80004930 <main+0xd0>
    80001450:	044030ef          	jal	80004494 <printf>
    80001454:	00100513          	li	a0,1
    80001458:	751020ef          	jal	800043a8 <exit>

000000008000145c <mm_naive>:
    8000145c:	1c050463          	beqz	a0,80001624 <mm_naive+0x1c8>
    80001460:	f9010113          	addi	sp,sp,-112
    80001464:	01a13c23          	sd	s10,24(sp)
    80001468:	07013d03          	ld	s10,112(sp)
    8000146c:	f2000353          	fmv.d.x	ft6,zero
    80001470:	05313823          	sd	s3,80(sp)
    80001474:	05513023          	sd	s5,64(sp)
    80001478:	00078993          	mv	s3,a5
    8000147c:	00080a93          	mv	s5,a6
    80001480:	00361793          	slli	a5,a2,0x3
    80001484:	06813423          	sd	s0,104(sp)
    80001488:	06913023          	sd	s1,96(sp)
    8000148c:	05213c23          	sd	s2,88(sp)
    80001490:	05413423          	sd	s4,72(sp)
    80001494:	03613c23          	sd	s6,56(sp)
    80001498:	03713823          	sd	s7,48(sp)
    8000149c:	03813423          	sd	s8,40(sp)
    800014a0:	03913023          	sd	s9,32(sp)
    800014a4:	01b13823          	sd	s11,16(sp)
    800014a8:	00070c13          	mv	s8,a4
    800014ac:	00371d93          	slli	s11,a4,0x3
    800014b0:	00f13423          	sd	a5,8(sp)
    800014b4:	00050a13          	mv	s4,a0
    800014b8:	00058413          	mv	s0,a1
    800014bc:	00060913          	mv	s2,a2
    800014c0:	00068b13          	mv	s6,a3
    800014c4:	003d1d13          	slli	s10,s10,0x3
    800014c8:	00088b93          	mv	s7,a7
    800014cc:	00068813          	mv	a6,a3
    800014d0:	005a9f93          	slli	t6,s5,0x5
    800014d4:	003a9713          	slli	a4,s5,0x3
    800014d8:	004a9f13          	slli	t5,s5,0x4
    800014dc:	00000493          	li	s1,0
    800014e0:	00000c93          	li	s9,0
    800014e4:	ffc67793          	andi	a5,a2,-4
    800014e8:	0e040263          	beqz	s0,800015cc <mm_naive+0x170>
    800014ec:	00813683          	ld	a3,8(sp)
    800014f0:	00098513          	mv	a0,s3
    800014f4:	000b8613          	mv	a2,s7
    800014f8:	010686b3          	add	a3,a3,a6
    800014fc:	00000593          	li	a1,0
    80001500:	00063787          	fld	fa5,0(a2)
    80001504:	10078a63          	beqz	a5,80001618 <mm_naive+0x1bc>
    80001508:	f20006d3          	fmv.d.x	fa3,zero
    8000150c:	00a70e33          	add	t3,a4,a0
    80001510:	00050313          	mv	t1,a0
    80001514:	22d68753          	fmv.d	fa4,fa3
    80001518:	22d68653          	fmv.d	fa2,fa3
    8000151c:	00080893          	mv	a7,a6
    80001520:	00000e93          	li	t4,0
    80001524:	01e303b3          	add	t2,t1,t5
    80001528:	01ee02b3          	add	t0,t3,t5
    8000152c:	0008b287          	fld	ft5,0(a7)
    80001530:	00033207          	fld	ft4,0(t1)
    80001534:	0088b187          	fld	ft3,8(a7)
    80001538:	000e3107          	fld	ft2,0(t3)
    8000153c:	0108b087          	fld	ft1,16(a7)
    80001540:	0188b507          	fld	fa0,24(a7)
    80001544:	0003b007          	fld	ft0,0(t2)
    80001548:	0002b587          	fld	fa1,0(t0)
    8000154c:	004e8e93          	addi	t4,t4,4
    80001550:	7a42f7c3          	fmadd.d	fa5,ft5,ft4,fa5
    80001554:	6221f643          	fmadd.d	fa2,ft3,ft2,fa2
    80001558:	7200f743          	fmadd.d	fa4,ft1,ft0,fa4
    8000155c:	6ab576c3          	fmadd.d	fa3,fa0,fa1,fa3
    80001560:	02088893          	addi	a7,a7,32
    80001564:	01f30333          	add	t1,t1,t6
    80001568:	01fe0e33          	add	t3,t3,t6
    8000156c:	fafeece3          	bltu	t4,a5,80001524 <mm_naive+0xc8>
    80001570:	02d77753          	fadd.d	fa4,fa4,fa3
    80001574:	00078893          	mv	a7,a5
    80001578:	02c77753          	fadd.d	fa4,fa4,fa2
    8000157c:	0328fc63          	bleu	s2,a7,800015b4 <mm_naive+0x158>
    80001580:	031a8333          	mul	t1,s5,a7
    80001584:	009888b3          	add	a7,a7,s1
    80001588:	00389893          	slli	a7,a7,0x3
    8000158c:	011b08b3          	add	a7,s6,a7
    80001590:	00b30333          	add	t1,t1,a1
    80001594:	00331313          	slli	t1,t1,0x3
    80001598:	00698333          	add	t1,s3,t1
    8000159c:	0008b607          	fld	fa2,0(a7)
    800015a0:	00033687          	fld	fa3,0(t1)
    800015a4:	00888893          	addi	a7,a7,8
    800015a8:	00e30333          	add	t1,t1,a4
    800015ac:	7ad677c3          	fmadd.d	fa5,fa2,fa3,fa5
    800015b0:	fed896e3          	bne	a7,a3,8000159c <mm_naive+0x140>
    800015b4:	02e7f7d3          	fadd.d	fa5,fa5,fa4
    800015b8:	00860613          	addi	a2,a2,8
    800015bc:	00158593          	addi	a1,a1,1
    800015c0:	00850513          	addi	a0,a0,8
    800015c4:	fef63c27          	fsd	fa5,-8(a2)
    800015c8:	f2b41ce3          	bne	s0,a1,80001500 <mm_naive+0xa4>
    800015cc:	001c8c93          	addi	s9,s9,1
    800015d0:	01ab8bb3          	add	s7,s7,s10
    800015d4:	01b80833          	add	a6,a6,s11
    800015d8:	018484b3          	add	s1,s1,s8
    800015dc:	f19a16e3          	bne	s4,s9,800014e8 <mm_naive+0x8c>
    800015e0:	06813403          	ld	s0,104(sp)
    800015e4:	06013483          	ld	s1,96(sp)
    800015e8:	05813903          	ld	s2,88(sp)
    800015ec:	05013983          	ld	s3,80(sp)
    800015f0:	04813a03          	ld	s4,72(sp)
    800015f4:	04013a83          	ld	s5,64(sp)
    800015f8:	03813b03          	ld	s6,56(sp)
    800015fc:	03013b83          	ld	s7,48(sp)
    80001600:	02813c03          	ld	s8,40(sp)
    80001604:	02013c83          	ld	s9,32(sp)
    80001608:	01813d03          	ld	s10,24(sp)
    8000160c:	01013d83          	ld	s11,16(sp)
    80001610:	07010113          	addi	sp,sp,112
    80001614:	00008067          	ret
    80001618:	22630753          	fmv.d	fa4,ft6
    8000161c:	00000893          	li	a7,0
    80001620:	f5dff06f          	j	8000157c <mm_naive+0x120>
    80001624:	00008067          	ret

0000000080001628 <mm_cb>:
    80001628:	d7010113          	addi	sp,sp,-656
    8000162c:	28813023          	sd	s0,640(sp)
    80001630:	29010413          	addi	s0,sp,656
    80001634:	00060e13          	mv	t3,a2
    80001638:	f0c43423          	sd	a2,-248(s0)
    8000163c:	01900613          	li	a2,25
    80001640:	01800e93          	li	t4,24
    80001644:	eab43823          	sd	a1,-336(s0)
    80001648:	02c5d5b3          	divu	a1,a1,a2
    8000164c:	e4f43823          	sd	a5,-432(s0)
    80001650:	f2e43423          	sd	a4,-216(s0)
    80001654:	28113423          	sd	ra,648(sp)
    80001658:	26913c23          	sd	s1,632(sp)
    8000165c:	27213823          	sd	s2,624(sp)
    80001660:	27313423          	sd	s3,616(sp)
    80001664:	27413023          	sd	s4,608(sp)
    80001668:	25513c23          	sd	s5,600(sp)
    8000166c:	25613823          	sd	s6,592(sp)
    80001670:	25713423          	sd	s7,584(sp)
    80001674:	25813023          	sd	s8,576(sp)
    80001678:	23913c23          	sd	s9,568(sp)
    8000167c:	23a13823          	sd	s10,560(sp)
    80001680:	23b13423          	sd	s11,552(sp)
    80001684:	20813c27          	fsd	fs0,536(sp)
    80001688:	20913827          	fsd	fs1,528(sp)
    8000168c:	21213427          	fsd	fs2,520(sp)
    80001690:	21313027          	fsd	fs3,512(sp)
    80001694:	1f413c27          	fsd	fs4,504(sp)
    80001698:	1f513827          	fsd	fs5,496(sp)
    8000169c:	1f613427          	fsd	fs6,488(sp)
    800016a0:	1f713027          	fsd	fs7,480(sp)
    800016a4:	1d813c27          	fsd	fs8,472(sp)
    800016a8:	1d913827          	fsd	fs9,464(sp)
    800016ac:	1da13427          	fsd	fs10,456(sp)
    800016b0:	1db13027          	fsd	fs11,448(sp)
    800016b4:	e4d43c23          	sd	a3,-424(s0)
    800016b8:	e6a43023          	sd	a0,-416(s0)
    800016bc:	00002637          	lui	a2,0x2
    800016c0:	fff60613          	addi	a2,a2,-1 # 1fff <_tbss_end+0x1f7b>
    800016c4:	03de57b3          	divu	a5,t3,t4
    800016c8:	00058313          	mv	t1,a1
    800016cc:	f0b43823          	sd	a1,-240(s0)
    800016d0:	f3043023          	sd	a6,-224(s0)
    800016d4:	e9143423          	sd	a7,-376(s0)
    800016d8:	ffffe5b7          	lui	a1,0xffffe
    800016dc:	03d55733          	divu	a4,a0,t4
    800016e0:	00078693          	mv	a3,a5
    800016e4:	e4f43423          	sd	a5,-440(s0)
    800016e8:	00131793          	slli	a5,t1,0x1
    800016ec:	006787b3          	add	a5,a5,t1
    800016f0:	00379793          	slli	a5,a5,0x3
    800016f4:	006787b3          	add	a5,a5,t1
    800016f8:	00078813          	mv	a6,a5
    800016fc:	eef43c23          	sd	a5,-264(s0)
    80001700:	00169793          	slli	a5,a3,0x1
    80001704:	00d787b3          	add	a5,a5,a3
    80001708:	00379793          	slli	a5,a5,0x3
    8000170c:	00078893          	mv	a7,a5
    80001710:	f0f43c23          	sd	a5,-232(s0)
    80001714:	00171793          	slli	a5,a4,0x1
    80001718:	00e787b3          	add	a5,a5,a4
    8000171c:	00379793          	slli	a5,a5,0x3
    80001720:	00078693          	mv	a3,a5
    80001724:	f0f43023          	sd	a5,-256(s0)
    80001728:	031787b3          	mul	a5,a5,a7
    8000172c:	40078793          	addi	a5,a5,1024
    80001730:	00379793          	slli	a5,a5,0x3
    80001734:	01078793          	addi	a5,a5,16
    80001738:	40f10133          	sub	sp,sp,a5
    8000173c:	01010793          	addi	a5,sp,16
    80001740:	00c787b3          	add	a5,a5,a2
    80001744:	00b7f7b3          	and	a5,a5,a1
    80001748:	03180733          	mul	a4,a6,a7
    8000174c:	eef43823          	sd	a5,-272(s0)
    80001750:	030687b3          	mul	a5,a3,a6
    80001754:	40070713          	addi	a4,a4,1024
    80001758:	00371713          	slli	a4,a4,0x3
    8000175c:	01070713          	addi	a4,a4,16
    80001760:	40e10133          	sub	sp,sp,a4
    80001764:	01010713          	addi	a4,sp,16
    80001768:	00c70733          	add	a4,a4,a2
    8000176c:	00b77733          	and	a4,a4,a1
    80001770:	eee43423          	sd	a4,-280(s0)
    80001774:	40078793          	addi	a5,a5,1024
    80001778:	00379793          	slli	a5,a5,0x3
    8000177c:	01078793          	addi	a5,a5,16
    80001780:	40f10133          	sub	sp,sp,a5
    80001784:	01010793          	addi	a5,sp,16
    80001788:	00c78633          	add	a2,a5,a2
    8000178c:	00b677b3          	and	a5,a2,a1
    80001790:	eaf43423          	sd	a5,-344(s0)
    80001794:	10068463          	beqz	a3,8000189c <mm_cb+0x274>
    80001798:	f2843783          	ld	a5,-216(s0)
    8000179c:	e5843f83          	ld	t6,-424(s0)
    800017a0:	f1843383          	ld	t2,-232(s0)
    800017a4:	00179313          	slli	t1,a5,0x1
    800017a8:	00f302b3          	add	t0,t1,a5
    800017ac:	00001f37          	lui	t5,0x1
    800017b0:	00629293          	slli	t0,t0,0x6
    800017b4:	00379c13          	slli	s8,a5,0x3
    800017b8:	00000e13          	li	t3,0
    800017bc:	000e8593          	mv	a1,t4
    800017c0:	200f0f13          	addi	t5,t5,512 # 1200 <_tbss_end+0x117c>
    800017c4:	0a038863          	beqz	t2,80001874 <mm_cb+0x24c>
    800017c8:	02be5833          	divu	a6,t3,a1
    800017cc:	e4843783          	ld	a5,-440(s0)
    800017d0:	000f8e93          	mv	t4,t6
    800017d4:	00000893          	li	a7,0
    800017d8:	02f80833          	mul	a6,a6,a5
    800017dc:	000e8513          	mv	a0,t4
    800017e0:	02b8d7b3          	divu	a5,a7,a1
    800017e4:	010787b3          	add	a5,a5,a6
    800017e8:	00379613          	slli	a2,a5,0x3
    800017ec:	00f60633          	add	a2,a2,a5
    800017f0:	ef043783          	ld	a5,-272(s0)
    800017f4:	00961613          	slli	a2,a2,0x9
    800017f8:	00c78633          	add	a2,a5,a2
    800017fc:	01e604b3          	add	s1,a2,t5
    80001800:	00060713          	mv	a4,a2
    80001804:	00050793          	mv	a5,a0
    80001808:	00000693          	li	a3,0
    8000180c:	0007b087          	fld	ft1,0(a5)
    80001810:	0087b007          	fld	ft0,8(a5)
    80001814:	0107b507          	fld	fa0,16(a5)
    80001818:	0187b587          	fld	fa1,24(a5)
    8000181c:	0207b607          	fld	fa2,32(a5)
    80001820:	0287b687          	fld	fa3,40(a5)
    80001824:	0307b707          	fld	fa4,48(a5)
    80001828:	0387b787          	fld	fa5,56(a5)
    8000182c:	00868693          	addi	a3,a3,8
    80001830:	00173027          	fsd	ft1,0(a4)
    80001834:	00073427          	fsd	ft0,8(a4)
    80001838:	00a73827          	fsd	fa0,16(a4)
    8000183c:	00b73c27          	fsd	fa1,24(a4)
    80001840:	02c73027          	fsd	fa2,32(a4)
    80001844:	02d73427          	fsd	fa3,40(a4)
    80001848:	02e73827          	fsd	fa4,48(a4)
    8000184c:	02f73c27          	fsd	fa5,56(a4)
    80001850:	04078793          	addi	a5,a5,64
    80001854:	04070713          	addi	a4,a4,64
    80001858:	fab69ae3          	bne	a3,a1,8000180c <mm_cb+0x1e4>
    8000185c:	0c060613          	addi	a2,a2,192
    80001860:	01850533          	add	a0,a0,s8
    80001864:	f8c49ee3          	bne	s1,a2,80001800 <mm_cb+0x1d8>
    80001868:	01888893          	addi	a7,a7,24
    8000186c:	0c0e8e93          	addi	t4,t4,192
    80001870:	f678e6e3          	bltu	a7,t2,800017dc <mm_cb+0x1b4>
    80001874:	f0043783          	ld	a5,-256(s0)
    80001878:	018e0e13          	addi	t3,t3,24
    8000187c:	005f8fb3          	add	t6,t6,t0
    80001880:	f4fe62e3          	bltu	t3,a5,800017c4 <mm_cb+0x19c>
    80001884:	f1843783          	ld	a5,-232(s0)
    80001888:	00079e63          	bnez	a5,800018a4 <mm_cb+0x27c>
    8000188c:	f2043783          	ld	a5,-224(s0)
    80001890:	00179893          	slli	a7,a5,0x1
    80001894:	00379c93          	slli	s9,a5,0x3
    80001898:	1100006f          	j	800019a8 <mm_cb+0x380>
    8000189c:	f1843783          	ld	a5,-232(s0)
    800018a0:	640780e3          	beqz	a5,800026e0 <mm_cb+0x10b8>
    800018a4:	f2043783          	ld	a5,-224(s0)
    800018a8:	e5043f83          	ld	t6,-432(s0)
    800018ac:	ef843283          	ld	t0,-264(s0)
    800018b0:	00179893          	slli	a7,a5,0x1
    800018b4:	00f883b3          	add	t2,a7,a5
    800018b8:	00001e37          	lui	t3,0x1
    800018bc:	00639393          	slli	t2,t2,0x6
    800018c0:	00379c93          	slli	s9,a5,0x3
    800018c4:	00000e93          	li	t4,0
    800018c8:	01800513          	li	a0,24
    800018cc:	01900913          	li	s2,25
    800018d0:	2c0e0e13          	addi	t3,t3,704 # 12c0 <_tbss_end+0x123c>
    800018d4:	0a028863          	beqz	t0,80001984 <mm_cb+0x35c>
    800018d8:	02aed833          	divu	a6,t4,a0
    800018dc:	f1043783          	ld	a5,-240(s0)
    800018e0:	000f8f13          	mv	t5,t6
    800018e4:	00000313          	li	t1,0
    800018e8:	02f80833          	mul	a6,a6,a5
    800018ec:	ee843783          	ld	a5,-280(s0)
    800018f0:	000f0593          	mv	a1,t5
    800018f4:	03235633          	divu	a2,t1,s2
    800018f8:	01060633          	add	a2,a2,a6
    800018fc:	03c60633          	mul	a2,a2,t3
    80001900:	00c78633          	add	a2,a5,a2
    80001904:	01c604b3          	add	s1,a2,t3
    80001908:	00060713          	mv	a4,a2
    8000190c:	00058793          	mv	a5,a1
    80001910:	00000693          	li	a3,0
    80001914:	0007b087          	fld	ft1,0(a5)
    80001918:	0087b007          	fld	ft0,8(a5)
    8000191c:	0107b507          	fld	fa0,16(a5)
    80001920:	0187b587          	fld	fa1,24(a5)
    80001924:	0207b607          	fld	fa2,32(a5)
    80001928:	0287b687          	fld	fa3,40(a5)
    8000192c:	0307b707          	fld	fa4,48(a5)
    80001930:	0387b787          	fld	fa5,56(a5)
    80001934:	00868693          	addi	a3,a3,8
    80001938:	00173027          	fsd	ft1,0(a4)
    8000193c:	00073427          	fsd	ft0,8(a4)
    80001940:	00a73827          	fsd	fa0,16(a4)
    80001944:	00b73c27          	fsd	fa1,24(a4)
    80001948:	02c73027          	fsd	fa2,32(a4)
    8000194c:	02d73427          	fsd	fa3,40(a4)
    80001950:	02e73827          	fsd	fa4,48(a4)
    80001954:	02f73c27          	fsd	fa5,56(a4)
    80001958:	04078793          	addi	a5,a5,64
    8000195c:	04070713          	addi	a4,a4,64
    80001960:	faa69ae3          	bne	a3,a0,80001914 <mm_cb+0x2ec>
    80001964:	0c05b787          	fld	fa5,192(a1) # ffffffffffffe0c0 <_gp+0xffffffff7fff9028>
    80001968:	0c860613          	addi	a2,a2,200
    8000196c:	019585b3          	add	a1,a1,s9
    80001970:	fef63c27          	fsd	fa5,-8(a2)
    80001974:	f8c49ae3          	bne	s1,a2,80001908 <mm_cb+0x2e0>
    80001978:	01930313          	addi	t1,t1,25
    8000197c:	0c8f0f13          	addi	t5,t5,200
    80001980:	f65366e3          	bltu	t1,t0,800018ec <mm_cb+0x2c4>
    80001984:	f1843783          	ld	a5,-232(s0)
    80001988:	018e8e93          	addi	t4,t4,24
    8000198c:	007f8fb3          	add	t6,t6,t2
    80001990:	f4fee2e3          	bltu	t4,a5,800018d4 <mm_cb+0x2ac>
    80001994:	f2843783          	ld	a5,-216(s0)
    80001998:	00179313          	slli	t1,a5,0x1
    8000199c:	00379c13          	slli	s8,a5,0x3
    800019a0:	f0043783          	ld	a5,-256(s0)
    800019a4:	52078ee3          	beqz	a5,800026e0 <mm_cb+0x10b8>
    800019a8:	00043783          	ld	a5,0(s0)
    800019ac:	00043703          	ld	a4,0(s0)
    800019b0:	e8843383          	ld	t2,-376(s0)
    800019b4:	00179793          	slli	a5,a5,0x1
    800019b8:	e0f43423          	sd	a5,-504(s0)
    800019bc:	ef843483          	ld	s1,-264(s0)
    800019c0:	00e787b3          	add	a5,a5,a4
    800019c4:	00679793          	slli	a5,a5,0x6
    800019c8:	00001eb7          	lui	t4,0x1
    800019cc:	e8f43023          	sd	a5,-384(s0)
    800019d0:	00371d13          	slli	s10,a4,0x3
    800019d4:	00000f13          	li	t5,0
    800019d8:	01800513          	li	a0,24
    800019dc:	01900913          	li	s2,25
    800019e0:	2c0e8e93          	addi	t4,t4,704 # 12c0 <_tbss_end+0x123c>
    800019e4:	0a048863          	beqz	s1,80001a94 <mm_cb+0x46c>
    800019e8:	02af5e33          	divu	t3,t5,a0
    800019ec:	f1043783          	ld	a5,-240(s0)
    800019f0:	00038293          	mv	t0,t2
    800019f4:	00000f93          	li	t6,0
    800019f8:	02fe0e33          	mul	t3,t3,a5
    800019fc:	ea843783          	ld	a5,-344(s0)
    80001a00:	00028593          	mv	a1,t0
    80001a04:	032fd633          	divu	a2,t6,s2
    80001a08:	01c60633          	add	a2,a2,t3
    80001a0c:	03d60633          	mul	a2,a2,t4
    80001a10:	00c78633          	add	a2,a5,a2
    80001a14:	01d60833          	add	a6,a2,t4
    80001a18:	00060713          	mv	a4,a2
    80001a1c:	00058793          	mv	a5,a1
    80001a20:	00000693          	li	a3,0
    80001a24:	0007b087          	fld	ft1,0(a5)
    80001a28:	0087b007          	fld	ft0,8(a5)
    80001a2c:	0107b507          	fld	fa0,16(a5)
    80001a30:	0187b587          	fld	fa1,24(a5)
    80001a34:	0207b607          	fld	fa2,32(a5)
    80001a38:	0287b687          	fld	fa3,40(a5)
    80001a3c:	0307b707          	fld	fa4,48(a5)
    80001a40:	0387b787          	fld	fa5,56(a5)
    80001a44:	00868693          	addi	a3,a3,8
    80001a48:	00173027          	fsd	ft1,0(a4)
    80001a4c:	00073427          	fsd	ft0,8(a4)
    80001a50:	00a73827          	fsd	fa0,16(a4)
    80001a54:	00b73c27          	fsd	fa1,24(a4)
    80001a58:	02c73027          	fsd	fa2,32(a4)
    80001a5c:	02d73427          	fsd	fa3,40(a4)
    80001a60:	02e73827          	fsd	fa4,48(a4)
    80001a64:	02f73c27          	fsd	fa5,56(a4)
    80001a68:	04078793          	addi	a5,a5,64
    80001a6c:	04070713          	addi	a4,a4,64
    80001a70:	faa69ae3          	bne	a3,a0,80001a24 <mm_cb+0x3fc>
    80001a74:	0c05b787          	fld	fa5,192(a1)
    80001a78:	0c860613          	addi	a2,a2,200
    80001a7c:	01a585b3          	add	a1,a1,s10
    80001a80:	fef63c27          	fsd	fa5,-8(a2)
    80001a84:	f8c81ae3          	bne	a6,a2,80001a18 <mm_cb+0x3f0>
    80001a88:	019f8f93          	addi	t6,t6,25
    80001a8c:	0c828293          	addi	t0,t0,200
    80001a90:	f69fe6e3          	bltu	t6,s1,800019fc <mm_cb+0x3d4>
    80001a94:	e8043783          	ld	a5,-384(s0)
    80001a98:	018f0f13          	addi	t5,t5,24
    80001a9c:	00f383b3          	add	t2,t2,a5
    80001aa0:	f0043783          	ld	a5,-256(s0)
    80001aa4:	f4ff60e3          	bltu	t5,a5,800019e4 <mm_cb+0x3bc>
    80001aa8:	f0843703          	ld	a4,-248(s0)
    80001aac:	01800793          	li	a5,24
    80001ab0:	f2843683          	ld	a3,-216(s0)
    80001ab4:	02f777b3          	remu	a5,a4,a5
    80001ab8:	00500613          	li	a2,5
    80001abc:	00d30333          	add	t1,t1,a3
    80001ac0:	00c696b3          	sll	a3,a3,a2
    80001ac4:	e8843e03          	ld	t3,-376(s0)
    80001ac8:	e8d43823          	sd	a3,-368(s0)
    80001acc:	00631593          	slli	a1,t1,0x6
    80001ad0:	f1843303          	ld	t1,-232(s0)
    80001ad4:	e0b43823          	sd	a1,-496(s0)
    80001ad8:	e6043c23          	sd	zero,-392(s0)
    80001adc:	00331813          	slli	a6,t1,0x3
    80001ae0:	010585b3          	add	a1,a1,a6
    80001ae4:	deb43023          	sd	a1,-544(s0)
    80001ae8:	dd043c23          	sd	a6,-552(s0)
    80001aec:	00078713          	mv	a4,a5
    80001af0:	e6f43823          	sd	a5,-400(s0)
    80001af4:	f2043783          	ld	a5,-224(s0)
    80001af8:	00f888b3          	add	a7,a7,a5
    80001afc:	00489793          	slli	a5,a7,0x4
    80001b00:	00078513          	mv	a0,a5
    80001b04:	daf43823          	sd	a5,-592(s0)
    80001b08:	ef843783          	ld	a5,-264(s0)
    80001b0c:	00689693          	slli	a3,a7,0x6
    80001b10:	e5043883          	ld	a7,-432(s0)
    80001b14:	00379793          	slli	a5,a5,0x3
    80001b18:	00fe0e33          	add	t3,t3,a5
    80001b1c:	00f887b3          	add	a5,a7,a5
    80001b20:	dcf43423          	sd	a5,-568(s0)
    80001b24:	00043783          	ld	a5,0(s0)
    80001b28:	dad43423          	sd	a3,-600(s0)
    80001b2c:	eb043683          	ld	a3,-336(s0)
    80001b30:	00c797b3          	sll	a5,a5,a2
    80001b34:	e4f43023          	sd	a5,-448(s0)
    80001b38:	000017b7          	lui	a5,0x1
    80001b3c:	2c078b93          	addi	s7,a5,704 # 12c0 <_tbss_end+0x123c>
    80001b40:	01900793          	li	a5,25
    80001b44:	02f6f7b3          	remu	a5,a3,a5
    80001b48:	edc43023          	sd	t3,-320(s0)
    80001b4c:	e5843e03          	ld	t3,-424(s0)
    80001b50:	e9c43c23          	sd	t3,-360(s0)
    80001b54:	00078593          	mv	a1,a5
    80001b58:	dcf43023          	sd	a5,-576(s0)
    80001b5c:	00371793          	slli	a5,a4,0x3
    80001b60:	e2f43423          	sd	a5,-472(s0)
    80001b64:	00600793          	li	a5,6
    80001b68:	02f757b3          	divu	a5,a4,a5
    80001b6c:	00179713          	slli	a4,a5,0x1
    80001b70:	00f70733          	add	a4,a4,a5
    80001b74:	00471713          	slli	a4,a4,0x4
    80001b78:	e0e43c23          	sd	a4,-488(s0)
    80001b7c:	01870733          	add	a4,a4,s8
    80001b80:	e0e43023          	sd	a4,-512(s0)
    80001b84:	01870733          	add	a4,a4,s8
    80001b88:	dae43023          	sd	a4,-608(s0)
    80001b8c:	01870733          	add	a4,a4,s8
    80001b90:	02c5d6b3          	divu	a3,a1,a2
    80001b94:	d8e43c23          	sd	a4,-616(s0)
    80001b98:	02c5f733          	remu	a4,a1,a2
    80001b9c:	e2e43023          	sd	a4,-480(s0)
    80001ba0:	00269713          	slli	a4,a3,0x2
    80001ba4:	00d70733          	add	a4,a4,a3
    80001ba8:	dae43c23          	sd	a4,-584(s0)
    80001bac:	00371713          	slli	a4,a4,0x3
    80001bb0:	e6e43423          	sd	a4,-408(s0)
    80001bb4:	02a787b3          	mul	a5,a5,a0
    80001bb8:	03930733          	mul	a4,t1,s9
    80001bbc:	e2f43823          	sd	a5,-464(s0)
    80001bc0:	00e887b3          	add	a5,a7,a4
    80001bc4:	dcf43823          	sd	a5,-560(s0)
    80001bc8:	dfa43c23          	sd	s10,-520(s0)
    80001bcc:	000c8d13          	mv	s10,s9
    80001bd0:	000c0c93          	mv	s9,s8
    80001bd4:	ef843783          	ld	a5,-264(s0)
    80001bd8:	2a0786e3          	beqz	a5,80002684 <mm_cb+0x105c>
    80001bdc:	e7843703          	ld	a4,-392(s0)
    80001be0:	01800793          	li	a5,24
    80001be4:	de043683          	ld	a3,-544(s0)
    80001be8:	02f757b3          	divu	a5,a4,a5
    80001bec:	e9843703          	ld	a4,-360(s0)
    80001bf0:	ea043023          	sd	zero,-352(s0)
    80001bf4:	00e686b3          	add	a3,a3,a4
    80001bf8:	ded43423          	sd	a3,-536(s0)
    80001bfc:	dd843683          	ld	a3,-552(s0)
    80001c00:	00e68733          	add	a4,a3,a4
    80001c04:	dee43823          	sd	a4,-528(s0)
    80001c08:	dd043703          	ld	a4,-560(s0)
    80001c0c:	eae43c23          	sd	a4,-328(s0)
    80001c10:	e4843703          	ld	a4,-440(s0)
    80001c14:	02f70733          	mul	a4,a4,a5
    80001c18:	eee43023          	sd	a4,-288(s0)
    80001c1c:	f1043703          	ld	a4,-240(s0)
    80001c20:	02f707b3          	mul	a5,a4,a5
    80001c24:	e2f43c23          	sd	a5,-456(s0)
    80001c28:	f1843783          	ld	a5,-232(s0)
    80001c2c:	48078e63          	beqz	a5,800020c8 <mm_cb+0xaa0>
    80001c30:	ea043703          	ld	a4,-352(s0)
    80001c34:	01900993          	li	s3,25
    80001c38:	e3843683          	ld	a3,-456(s0)
    80001c3c:	03375733          	divu	a4,a4,s3
    80001c40:	000017b7          	lui	a5,0x1
    80001c44:	38878793          	addi	a5,a5,904 # 1388 <_tbss_end+0x1304>
    80001c48:	00000c13          	li	s8,0
    80001c4c:	01800a13          	li	s4,24
    80001c50:	00400b13          	li	s6,4
    80001c54:	d9943823          	sd	s9,-624(s0)
    80001c58:	d9a43423          	sd	s10,-632(s0)
    80001c5c:	00d70ab3          	add	s5,a4,a3
    80001c60:	037a8ab3          	mul	s5,s5,s7
    80001c64:	ece43c23          	sd	a4,-296(s0)
    80001c68:	ea843703          	ld	a4,-344(s0)
    80001c6c:	01570ab3          	add	s5,a4,s5
    80001c70:	017a8733          	add	a4,s5,s7
    80001c74:	ece43823          	sd	a4,-304(s0)
    80001c78:	0c8a8713          	addi	a4,s5,200
    80001c7c:	ece43423          	sd	a4,-312(s0)
    80001c80:	00fa8ab3          	add	s5,s5,a5
    80001c84:	034c57b3          	divu	a5,s8,s4
    80001c88:	f1043703          	ld	a4,-240(s0)
    80001c8c:	ec843d03          	ld	s10,-312(s0)
    80001c90:	02f704b3          	mul	s1,a4,a5
    80001c94:	ee043703          	ld	a4,-288(s0)
    80001c98:	00e787b3          	add	a5,a5,a4
    80001c9c:	00379913          	slli	s2,a5,0x3
    80001ca0:	00f90933          	add	s2,s2,a5
    80001ca4:	ef043783          	ld	a5,-272(s0)
    80001ca8:	00991913          	slli	s2,s2,0x9
    80001cac:	01278933          	add	s2,a5,s2
    80001cb0:	ed843783          	ld	a5,-296(s0)
    80001cb4:	00090d93          	mv	s11,s2
    80001cb8:	00f484b3          	add	s1,s1,a5
    80001cbc:	037484b3          	mul	s1,s1,s7
    80001cc0:	ee843783          	ld	a5,-280(s0)
    80001cc4:	009784b3          	add	s1,a5,s1
    80001cc8:	0c848c93          	addi	s9,s1,200
    80001ccc:	f38d0693          	addi	a3,s10,-200
    80001cd0:	00048613          	mv	a2,s1
    80001cd4:	0006bb07          	fld	fs6,0(a3)
    80001cd8:	0086ba87          	fld	fs5,8(a3)
    80001cdc:	0106ba07          	fld	fs4,16(a3)
    80001ce0:	0186b987          	fld	fs3,24(a3)
    80001ce4:	0206b507          	fld	fa0,32(a3)
    80001ce8:	0c86bb87          	fld	fs7,200(a3)
    80001cec:	0d06b907          	fld	fs2,208(a3)
    80001cf0:	0d86b487          	fld	fs1,216(a3)
    80001cf4:	0e06b407          	fld	fs0,224(a3)
    80001cf8:	0e86b587          	fld	fa1,232(a3)
    80001cfc:	1906bc07          	fld	fs8,400(a3)
    80001d00:	1986bf87          	fld	ft11,408(a3)
    80001d04:	1a06bf07          	fld	ft10,416(a3)
    80001d08:	1a86be87          	fld	ft9,424(a3)
    80001d0c:	1b06b607          	fld	fa2,432(a3)
    80001d10:	2586b387          	fld	ft7,600(a3)
    80001d14:	2606b307          	fld	ft6,608(a3)
    80001d18:	2686b287          	fld	ft5,616(a3)
    80001d1c:	2706b187          	fld	ft3,624(a3)
    80001d20:	2786b787          	fld	fa5,632(a3)
    80001d24:	00060793          	mv	a5,a2
    80001d28:	017605b3          	add	a1,a2,s7
    80001d2c:	000d8713          	mv	a4,s11
    80001d30:	00073e07          	fld	ft8,0(a4)
    80001d34:	18073887          	fld	fa7,384(a4)
    80001d38:	24073807          	fld	fa6,576(a4)
    80001d3c:	0c073687          	fld	fa3,192(a4)
    80001d40:	0187b707          	fld	fa4,24(a5)
    80001d44:	0007b007          	fld	ft0,0(a5)
    80001d48:	0087b087          	fld	ft1,8(a5)
    80001d4c:	0107b107          	fld	ft2,16(a5)
    80001d50:	0207b207          	fld	ft4,32(a5)
    80001d54:	b20e7b43          	fmadd.d	fs6,ft8,ft0,fs6
    80001d58:	aa1e7ac3          	fmadd.d	fs5,ft8,ft1,fs5
    80001d5c:	a22e7a43          	fmadd.d	fs4,ft8,ft2,fs4
    80001d60:	9aee79c3          	fmadd.d	fs3,ft8,fa4,fs3
    80001d64:	524e7543          	fmadd.d	fa0,ft8,ft4,fa0
    80001d68:	bad07bc3          	fmadd.d	fs7,ft0,fa3,fs7
    80001d6c:	92d0f943          	fmadd.d	fs2,ft1,fa3,fs2
    80001d70:	4ad174c3          	fmadd.d	fs1,ft2,fa3,fs1
    80001d74:	42d77443          	fmadd.d	fs0,fa4,fa3,fs0
    80001d78:	c3107c43          	fmadd.d	fs8,ft0,fa7,fs8
    80001d7c:	5ad276c3          	fmadd.d	fa3,ft4,fa3,fa1
    80001d80:	fb10ffc3          	fmadd.d	ft11,ft1,fa7,ft11
    80001d84:	f3117f43          	fmadd.d	ft10,ft2,fa7,ft10
    80001d88:	eb177ec3          	fmadd.d	ft9,fa4,fa7,ft9
    80001d8c:	63127643          	fmadd.d	fa2,ft4,fa7,fa2
    80001d90:	3b007043          	fmadd.d	ft0,ft0,fa6,ft7
    80001d94:	3300f0c3          	fmadd.d	ft1,ft1,fa6,ft6
    80001d98:	2b017143          	fmadd.d	ft2,ft2,fa6,ft5
    80001d9c:	1b0771c3          	fmadd.d	ft3,fa4,fa6,ft3
    80001da0:	7b027243          	fmadd.d	ft4,ft4,fa6,fa5
    80001da4:	18873887          	fld	fa7,392(a4)
    80001da8:	00873807          	fld	fa6,8(a4)
    80001dac:	24873787          	fld	fa5,584(a4)
    80001db0:	0c873587          	fld	fa1,200(a4)
    80001db4:	0c87be07          	fld	ft8,200(a5)
    80001db8:	0d07b387          	fld	ft7,208(a5)
    80001dbc:	0d87b307          	fld	ft6,216(a5)
    80001dc0:	0e07b287          	fld	ft5,224(a5)
    80001dc4:	0e87b707          	fld	fa4,232(a5)
    80001dc8:	b3c87b43          	fmadd.d	fs6,fa6,ft8,fs6
    80001dcc:	aa787ac3          	fmadd.d	fs5,fa6,ft7,fs5
    80001dd0:	52e87543          	fmadd.d	fa0,fa6,fa4,fa0
    80001dd4:	22f77243          	fmadd.d	ft4,fa4,fa5,ft4
    80001dd8:	a2687a43          	fmadd.d	fs4,fa6,ft6,fs4
    80001ddc:	9a5879c3          	fmadd.d	fs3,fa6,ft5,fs3
    80001de0:	babe7bc3          	fmadd.d	fs7,ft8,fa1,fs7
    80001de4:	92b3f943          	fmadd.d	fs2,ft7,fa1,fs2
    80001de8:	4ab374c3          	fmadd.d	fs1,ft6,fa1,fs1
    80001dec:	42b2f443          	fmadd.d	fs0,ft5,fa1,fs0
    80001df0:	c31e7c43          	fmadd.d	fs8,ft8,fa7,fs8
    80001df4:	6ab775c3          	fmadd.d	fa1,fa4,fa1,fa3
    80001df8:	fb13ffc3          	fmadd.d	ft11,ft7,fa7,ft11
    80001dfc:	f3137f43          	fmadd.d	ft10,ft6,fa7,ft10
    80001e00:	eb12fec3          	fmadd.d	ft9,ft5,fa7,ft9
    80001e04:	63177643          	fmadd.d	fa2,fa4,fa7,fa2
    80001e08:	02fe7043          	fmadd.d	ft0,ft8,fa5,ft0
    80001e0c:	0af3f0c3          	fmadd.d	ft1,ft7,fa5,ft1
    80001e10:	12f37143          	fmadd.d	ft2,ft6,fa5,ft2
    80001e14:	1af2f1c3          	fmadd.d	ft3,ft5,fa5,ft3
    80001e18:	19073707          	fld	fa4,400(a4)
    80001e1c:	0d073287          	fld	ft5,208(a4)
    80001e20:	01073807          	fld	fa6,16(a4)
    80001e24:	25073787          	fld	fa5,592(a4)
    80001e28:	1907b387          	fld	ft7,400(a5)
    80001e2c:	1987b307          	fld	ft6,408(a5)
    80001e30:	1a07bc87          	fld	fs9,416(a5)
    80001e34:	1b07b687          	fld	fa3,432(a5)
    80001e38:	1a87be07          	fld	ft8,424(a5)
    80001e3c:	12fcf143          	fmadd.d	ft2,fs9,fa5,ft2
    80001e40:	b2787b43          	fmadd.d	fs6,fa6,ft7,fs6
    80001e44:	aa687ac3          	fmadd.d	fs5,fa6,ft6,fs5
    80001e48:	a3987a43          	fmadd.d	fs4,fa6,fs9,fs4
    80001e4c:	9bc879c3          	fmadd.d	fs3,fa6,ft8,fs3
    80001e50:	ba53fbc3          	fmadd.d	fs7,ft7,ft5,fs7
    80001e54:	52d87843          	fmadd.d	fa6,fa6,fa3,fa0
    80001e58:	92537943          	fmadd.d	fs2,ft6,ft5,fs2
    80001e5c:	4a5cf4c3          	fmadd.d	fs1,fs9,ft5,fs1
    80001e60:	425e7443          	fmadd.d	fs0,ft8,ft5,fs0
    80001e64:	5a56f5c3          	fmadd.d	fa1,fa3,ft5,fa1
    80001e68:	c2e3fc43          	fmadd.d	fs8,ft7,fa4,fs8
    80001e6c:	fae37fc3          	fmadd.d	ft11,ft6,fa4,ft11
    80001e70:	f2ecff43          	fmadd.d	ft10,fs9,fa4,ft10
    80001e74:	eaee7ec3          	fmadd.d	ft9,ft8,fa4,ft9
    80001e78:	62e6f643          	fmadd.d	fa2,fa3,fa4,fa2
    80001e7c:	02f3f043          	fmadd.d	ft0,ft7,fa5,ft0
    80001e80:	0af370c3          	fmadd.d	ft1,ft6,fa5,ft1
    80001e84:	1afe71c3          	fmadd.d	ft3,ft8,fa5,ft3
    80001e88:	22f6f7c3          	fmadd.d	fa5,fa3,fa5,ft4
    80001e8c:	01873507          	fld	fa0,24(a4)
    80001e90:	2587b387          	fld	ft7,600(a5)
    80001e94:	2607b307          	fld	ft6,608(a5)
    80001e98:	2707b207          	fld	ft4,624(a5)
    80001e9c:	2687b287          	fld	ft5,616(a5)
    80001ea0:	2787be07          	fld	ft8,632(a5)
    80001ea4:	0d873687          	fld	fa3,216(a4)
    80001ea8:	19873707          	fld	fa4,408(a4)
    80001eac:	25873887          	fld	fa7,600(a4)
    80001eb0:	b2757b43          	fmadd.d	fs6,fa0,ft7,fs6
    80001eb4:	aa657ac3          	fmadd.d	fs5,fa0,ft6,fs5
    80001eb8:	0313f043          	fmadd.d	ft0,ft7,fa7,ft0
    80001ebc:	0b1370c3          	fmadd.d	ft1,ft6,fa7,ft1
    80001ec0:	1b1271c3          	fmadd.d	ft3,ft4,fa7,ft3
    80001ec4:	a2557a43          	fmadd.d	fs4,fa0,ft5,fs4
    80001ec8:	9a4579c3          	fmadd.d	fs3,fa0,ft4,fs3
    80001ecc:	83c57843          	fmadd.d	fa6,fa0,ft8,fa6
    80001ed0:	bad3fbc3          	fmadd.d	fs7,ft7,fa3,fs7
    80001ed4:	92d37943          	fmadd.d	fs2,ft6,fa3,fs2
    80001ed8:	4ad2f4c3          	fmadd.d	fs1,ft5,fa3,fs1
    80001edc:	42d27443          	fmadd.d	fs0,ft4,fa3,fs0
    80001ee0:	5ade75c3          	fmadd.d	fa1,ft8,fa3,fa1
    80001ee4:	c2e3fc43          	fmadd.d	fs8,ft7,fa4,fs8
    80001ee8:	fae37fc3          	fmadd.d	ft11,ft6,fa4,ft11
    80001eec:	f2e2ff43          	fmadd.d	ft10,ft5,fa4,ft10
    80001ef0:	eae27ec3          	fmadd.d	ft9,ft4,fa4,ft9
    80001ef4:	62ee7643          	fmadd.d	fa2,ft8,fa4,fa2
    80001ef8:	1312f2c3          	fmadd.d	ft5,ft5,fa7,ft2
    80001efc:	7b1e77c3          	fmadd.d	fa5,ft8,fa7,fa5
    80001f00:	02073507          	fld	fa0,32(a4)
    80001f04:	0e073687          	fld	fa3,224(a4)
    80001f08:	1a073707          	fld	fa4,416(a4)
    80001f0c:	26073e07          	fld	ft8,608(a4)
    80001f10:	3207b387          	fld	ft7,800(a5)
    80001f14:	3287b307          	fld	ft6,808(a5)
    80001f18:	3307bd07          	fld	fs10,816(a5)
    80001f1c:	3387bc87          	fld	fs9,824(a5)
    80001f20:	3407b887          	fld	fa7,832(a5)
    80001f24:	b2757b43          	fmadd.d	fs6,fa0,ft7,fs6
    80001f28:	aa657ac3          	fmadd.d	fs5,fa0,ft6,fs5
    80001f2c:	9b9579c3          	fmadd.d	fs3,fa0,fs9,fs3
    80001f30:	bad3fbc3          	fmadd.d	fs7,ft7,fa3,fs7
    80001f34:	92d37943          	fmadd.d	fs2,ft6,fa3,fs2
    80001f38:	42dcf443          	fmadd.d	fs0,fs9,fa3,fs0
    80001f3c:	c2e3fc43          	fmadd.d	fs8,ft7,fa4,fs8
    80001f40:	fae37fc3          	fmadd.d	ft11,ft6,fa4,ft11
    80001f44:	eaecfec3          	fmadd.d	ft9,fs9,fa4,ft9
    80001f48:	a3a57a43          	fmadd.d	fs4,fa0,fs10,fs4
    80001f4c:	83157843          	fmadd.d	fa6,fa0,fa7,fa6
    80001f50:	4add74c3          	fmadd.d	fs1,fs10,fa3,fs1
    80001f54:	5ad8f5c3          	fmadd.d	fa1,fa7,fa3,fa1
    80001f58:	f2ed7f43          	fmadd.d	ft10,fs10,fa4,ft10
    80001f5c:	62e8f643          	fmadd.d	fa2,fa7,fa4,fa2
    80001f60:	03c3f3c3          	fmadd.d	ft7,ft7,ft8,ft0
    80001f64:	0bc37343          	fmadd.d	ft6,ft6,ft8,ft1
    80001f68:	1bccfcc3          	fmadd.d	fs9,fs9,ft8,ft3
    80001f6c:	2bcd72c3          	fmadd.d	ft5,fs10,ft8,ft5
    80001f70:	7bc8f7c3          	fmadd.d	fa5,fa7,ft8,fa5
    80001f74:	02873507          	fld	fa0,40(a4)
    80001f78:	0e873687          	fld	fa3,232(a4)
    80001f7c:	1a873707          	fld	fa4,424(a4)
    80001f80:	26873207          	fld	ft4,616(a4)
    80001f84:	3e87b007          	fld	ft0,1000(a5)
    80001f88:	3f07b087          	fld	ft1,1008(a5)
    80001f8c:	3f87b107          	fld	ft2,1016(a5)
    80001f90:	4007b187          	fld	ft3,1024(a5)
    80001f94:	4087bd87          	fld	fs11,1032(a5)
    80001f98:	4b078793          	addi	a5,a5,1200
    80001f9c:	9a3579c3          	fmadd.d	fs3,fa0,ft3,fs3
    80001fa0:	b2057b43          	fmadd.d	fs6,fa0,ft0,fs6
    80001fa4:	aa157ac3          	fmadd.d	fs5,fa0,ft1,fs5
    80001fa8:	a2257a43          	fmadd.d	fs4,fa0,ft2,fs4
    80001fac:	42d1f443          	fmadd.d	fs0,ft3,fa3,fs0
    80001fb0:	eae1fec3          	fmadd.d	ft9,ft3,fa4,ft9
    80001fb4:	83b57543          	fmadd.d	fa0,fa0,fs11,fa6
    80001fb8:	bad07bc3          	fmadd.d	fs7,ft0,fa3,fs7
    80001fbc:	92d0f943          	fmadd.d	fs2,ft1,fa3,fs2
    80001fc0:	4ad174c3          	fmadd.d	fs1,ft2,fa3,fs1
    80001fc4:	5addf5c3          	fmadd.d	fa1,fs11,fa3,fa1
    80001fc8:	c2e07c43          	fmadd.d	fs8,ft0,fa4,fs8
    80001fcc:	fae0ffc3          	fmadd.d	ft11,ft1,fa4,ft11
    80001fd0:	f2e17f43          	fmadd.d	ft10,ft2,fa4,ft10
    80001fd4:	62edf643          	fmadd.d	fa2,fs11,fa4,fa2
    80001fd8:	3a4073c3          	fmadd.d	ft7,ft0,ft4,ft7
    80001fdc:	3240f343          	fmadd.d	ft6,ft1,ft4,ft6
    80001fe0:	2a4172c3          	fmadd.d	ft5,ft2,ft4,ft5
    80001fe4:	ca41f1c3          	fmadd.d	ft3,ft3,ft4,fs9
    80001fe8:	7a4df7c3          	fmadd.d	fa5,fs11,ft4,fa5
    80001fec:	03070713          	addi	a4,a4,48
    80001ff0:	d4b790e3          	bne	a5,a1,80001d30 <mm_cb+0x708>
    80001ff4:	0166b027          	fsd	fs6,0(a3)
    80001ff8:	0156b427          	fsd	fs5,8(a3)
    80001ffc:	0146b827          	fsd	fs4,16(a3)
    80002000:	0136bc27          	fsd	fs3,24(a3)
    80002004:	02a6b027          	fsd	fa0,32(a3)
    80002008:	0d76b427          	fsd	fs7,200(a3)
    8000200c:	0d26b827          	fsd	fs2,208(a3)
    80002010:	0c96bc27          	fsd	fs1,216(a3)
    80002014:	0e86b027          	fsd	fs0,224(a3)
    80002018:	0eb6b427          	fsd	fa1,232(a3)
    8000201c:	1986b827          	fsd	fs8,400(a3)
    80002020:	19f6bc27          	fsd	ft11,408(a3)
    80002024:	1be6b027          	fsd	ft10,416(a3)
    80002028:	1bd6b427          	fsd	ft9,424(a3)
    8000202c:	1ac6b827          	fsd	fa2,432(a3)
    80002030:	2476bc27          	fsd	ft7,600(a3)
    80002034:	2666b027          	fsd	ft6,608(a3)
    80002038:	2656b427          	fsd	ft5,616(a3)
    8000203c:	2636b827          	fsd	ft3,624(a3)
    80002040:	26f6bc27          	fsd	fa5,632(a3)
    80002044:	02860613          	addi	a2,a2,40
    80002048:	02868693          	addi	a3,a3,40
    8000204c:	c8cc94e3          	bne	s9,a2,80001cd4 <mm_cb+0x6ac>
    80002050:	000d0893          	mv	a7,s10
    80002054:	000d8693          	mv	a3,s11
    80002058:	01313023          	sd	s3,0(sp)
    8000205c:	00098813          	mv	a6,s3
    80002060:	000c8793          	mv	a5,s9
    80002064:	000a0713          	mv	a4,s4
    80002068:	01800613          	li	a2,24
    8000206c:	00000593          	li	a1,0
    80002070:	000b0513          	mv	a0,s6
    80002074:	320d0d13          	addi	s10,s10,800
    80002078:	be4ff0ef          	jal	8000145c <mm_naive>
    8000207c:	300d8d93          	addi	s11,s11,768
    80002080:	c5aa96e3          	bne	s5,s10,80001ccc <mm_cb+0x6a4>
    80002084:	ed043883          	ld	a7,-304(s0)
    80002088:	000016b7          	lui	a3,0x1
    8000208c:	01900813          	li	a6,25
    80002090:	20068693          	addi	a3,a3,512 # 1200 <_tbss_end+0x117c>
    80002094:	00048793          	mv	a5,s1
    80002098:	01800613          	li	a2,24
    8000209c:	01313023          	sd	s3,0(sp)
    800020a0:	000a0713          	mv	a4,s4
    800020a4:	00d906b3          	add	a3,s2,a3
    800020a8:	00080593          	mv	a1,a6
    800020ac:	00000513          	li	a0,0
    800020b0:	00cc0c33          	add	s8,s8,a2
    800020b4:	ba8ff0ef          	jal	8000145c <mm_naive>
    800020b8:	f1843783          	ld	a5,-232(s0)
    800020bc:	bcfc64e3          	bltu	s8,a5,80001c84 <mm_cb+0x65c>
    800020c0:	d9043c83          	ld	s9,-624(s0)
    800020c4:	d8843d03          	ld	s10,-632(s0)
    800020c8:	eb843783          	ld	a5,-328(s0)
    800020cc:	f1843703          	ld	a4,-232(s0)
    800020d0:	0c878913          	addi	s2,a5,200
    800020d4:	f0843783          	ld	a5,-248(s0)
    800020d8:	58f77a63          	bleu	a5,a4,8000266c <mm_cb+0x1044>
    800020dc:	ea043783          	ld	a5,-352(s0)
    800020e0:	01900a13          	li	s4,25
    800020e4:	df043483          	ld	s1,-528(s0)
    800020e8:	0347dab3          	divu	s5,a5,s4
    800020ec:	000017b7          	lui	a5,0x1
    800020f0:	38878c13          	addi	s8,a5,904 # 1388 <_tbss_end+0x1304>
    800020f4:	e3843783          	ld	a5,-456(s0)
    800020f8:	da043d83          	ld	s11,-608(s0)
    800020fc:	00400b13          	li	s6,4
    80002100:	00fa8ab3          	add	s5,s5,a5
    80002104:	037a8ab3          	mul	s5,s5,s7
    80002108:	ea843783          	ld	a5,-344(s0)
    8000210c:	01578ab3          	add	s5,a5,s5
    80002110:	0c8a8993          	addi	s3,s5,200
    80002114:	018a8c33          	add	s8,s5,s8
    80002118:	ed543c23          	sd	s5,-296(s0)
    8000211c:	d9843a83          	ld	s5,-616(s0)
    80002120:	e1843783          	ld	a5,-488(s0)
    80002124:	eb843883          	ld	a7,-328(s0)
    80002128:	e3043e83          	ld	t4,-464(s0)
    8000212c:	00f48533          	add	a0,s1,a5
    80002130:	e2843783          	ld	a5,-472(s0)
    80002134:	e0043e03          	ld	t3,-512(s0)
    80002138:	f3898593          	addi	a1,s3,-200
    8000213c:	00f48833          	add	a6,s1,a5
    80002140:	0005bb07          	fld	fs6,0(a1)
    80002144:	0085ba87          	fld	fs5,8(a1)
    80002148:	0105ba07          	fld	fs4,16(a1)
    8000214c:	0185b987          	fld	fs3,24(a1)
    80002150:	0205b587          	fld	fa1,32(a1)
    80002154:	0c85b907          	fld	fs2,200(a1)
    80002158:	0d05b487          	fld	fs1,208(a1)
    8000215c:	0d85b407          	fld	fs0,216(a1)
    80002160:	0e05bf87          	fld	ft11,224(a1)
    80002164:	0e85b607          	fld	fa2,232(a1)
    80002168:	1905bf07          	fld	ft10,400(a1)
    8000216c:	1985be87          	fld	ft9,408(a1)
    80002170:	1a05be07          	fld	ft8,416(a1)
    80002174:	1a85b107          	fld	ft2,424(a1)
    80002178:	1b05b687          	fld	fa3,432(a1)
    8000217c:	2585b087          	fld	ft1,600(a1)
    80002180:	2605b007          	fld	ft0,608(a1)
    80002184:	2685b507          	fld	fa0,616(a1)
    80002188:	2705b707          	fld	fa4,624(a1)
    8000218c:	2785b787          	fld	fa5,632(a1)
    80002190:	36a4fc63          	bleu	a0,s1,80002508 <mm_cb+0xee0>
    80002194:	019486b3          	add	a3,s1,s9
    80002198:	234a0353          	fmv.d	ft6,fs4
    8000219c:	22210c53          	fmv.d	fs8,ft2
    800021a0:	22840a53          	fmv.d	fs4,fs0
    800021a4:	23ff8153          	fmv.d	ft2,ft11
    800021a8:	22948453          	fmv.d	fs0,fs1
    800021ac:	22f783d3          	fmv.d	ft7,fa5
    800021b0:	232904d3          	fmv.d	fs1,fs2
    800021b4:	23de8cd3          	fmv.d	fs9,ft9
    800021b8:	235a8953          	fmv.d	fs2,fs5
    800021bc:	23ce0bd3          	fmv.d	fs7,ft8
    800021c0:	23ef0fd3          	fmv.d	ft11,ft10
    800021c4:	22a508d3          	fmv.d	fa7,fa0
    800021c8:	22e70853          	fmv.d	fa6,fa4
    800021cc:	233987d3          	fmv.d	fa5,fs3
    800021d0:	00080f13          	mv	t5,a6
    800021d4:	01968733          	add	a4,a3,s9
    800021d8:	01970633          	add	a2,a4,s9
    800021dc:	00048793          	mv	a5,s1
    800021e0:	00088813          	mv	a6,a7
    800021e4:	000f0313          	mv	t1,t5
    800021e8:	0007b187          	fld	ft3,0(a5)
    800021ec:	0006ba87          	fld	fs5,0(a3)
    800021f0:	00073707          	fld	fa4,0(a4)
    800021f4:	00063987          	fld	fs3,0(a2)
    800021f8:	00083507          	fld	fa0,0(a6)
    800021fc:	01083d87          	fld	fs11,16(a6)
    80002200:	01883d07          	fld	fs10,24(a6)
    80002204:	00883e87          	fld	ft9,8(a6)
    80002208:	02083e07          	fld	ft8,32(a6)
    8000220c:	b2a1ff43          	fmadd.d	ft10,ft3,fa0,fs6
    80002210:	4b5572c3          	fmadd.d	ft5,fa0,fs5,fs1
    80002214:	435ef243          	fmadd.d	ft4,ft9,fs5,fs0
    80002218:	fae57fc3          	fmadd.d	ft11,fa0,fa4,ft11
    8000221c:	0b3570c3          	fmadd.d	ft1,fa0,fs3,ft1
    80002220:	93d1f943          	fmadd.d	fs2,ft3,ft9,fs2
    80002224:	33b1f343          	fmadd.d	ft6,ft3,fs11,ft6
    80002228:	7ba1f7c3          	fmadd.d	fa5,ft3,fs10,fa5
    8000222c:	5bc1f5c3          	fmadd.d	fa1,ft3,ft8,fa1
    80002230:	135d7143          	fmadd.d	ft2,fs10,fs5,ft2
    80002234:	a35df1c3          	fmadd.d	ft3,fs11,fs5,fs4
    80002238:	635e7643          	fmadd.d	fa2,ft8,fs5,fa2
    8000223c:	caeefcc3          	fmadd.d	fs9,ft9,fa4,fs9
    80002240:	baedfbc3          	fmadd.d	fs7,fs11,fa4,fs7
    80002244:	c2ed7c43          	fmadd.d	fs8,fs10,fa4,fs8
    80002248:	6aee76c3          	fmadd.d	fa3,ft8,fa4,fa3
    8000224c:	033efec3          	fmadd.d	ft9,ft9,fs3,ft0
    80002250:	3b3e7e43          	fmadd.d	ft8,ft8,fs3,ft7
    80002254:	8b3df8c3          	fmadd.d	fa7,fs11,fs3,fa7
    80002258:	833d7843          	fmadd.d	fa6,fs10,fs3,fa6
    8000225c:	01a80833          	add	a6,a6,s10
    80002260:	0087b407          	fld	fs0,8(a5)
    80002264:	0086b007          	fld	ft0,8(a3)
    80002268:	00873707          	fld	fa4,8(a4)
    8000226c:	00863387          	fld	ft7,8(a2)
    80002270:	00883b07          	fld	fs6,8(a6)
    80002274:	01083d87          	fld	fs11,16(a6)
    80002278:	01883d07          	fld	fs10,24(a6)
    8000227c:	02083a07          	fld	fs4,32(a6)
    80002280:	00083507          	fld	fa0,0(a6)
    80002284:	93647943          	fmadd.d	fs2,fs0,fs6,fs2
    80002288:	33b47343          	fmadd.d	ft6,fs0,fs11,ft6
    8000228c:	f2a47f43          	fmadd.d	ft10,fs0,fa0,ft10
    80002290:	7ba477c3          	fmadd.d	fa5,fs0,fs10,fa5
    80002294:	5b4475c3          	fmadd.d	fa1,fs0,fs4,fa1
    80002298:	2a0572c3          	fmadd.d	ft5,fa0,ft0,ft5
    8000229c:	220b7243          	fmadd.d	ft4,fs6,ft0,ft4
    800022a0:	1a0df1c3          	fmadd.d	ft3,fs11,ft0,ft3
    800022a4:	120d7143          	fmadd.d	ft2,fs10,ft0,ft2
    800022a8:	620a7643          	fmadd.d	fa2,fs4,ft0,fa2
    800022ac:	caeb7cc3          	fmadd.d	fs9,fs6,fa4,fs9
    800022b0:	fae57043          	fmadd.d	ft0,fa0,fa4,ft11
    800022b4:	baedfbc3          	fmadd.d	fs7,fs11,fa4,fs7
    800022b8:	c2ed7c43          	fmadd.d	fs8,fs10,fa4,fs8
    800022bc:	6aea76c3          	fmadd.d	fa3,fs4,fa4,fa3
    800022c0:	0a757543          	fmadd.d	fa0,fa0,ft7,ft1
    800022c4:	ea7b7ec3          	fmadd.d	ft9,fs6,ft7,ft9
    800022c8:	8a7df8c3          	fmadd.d	fa7,fs11,ft7,fa7
    800022cc:	827d7843          	fmadd.d	fa6,fs10,ft7,fa6
    800022d0:	e27a73c3          	fmadd.d	ft7,fs4,ft7,ft8
    800022d4:	01a80833          	add	a6,a6,s10
    800022d8:	0107b487          	fld	fs1,16(a5)
    800022dc:	0106b407          	fld	fs0,16(a3)
    800022e0:	01073707          	fld	fa4,16(a4)
    800022e4:	01063e07          	fld	ft8,16(a2)
    800022e8:	00083087          	fld	ft1,0(a6)
    800022ec:	00883b07          	fld	fs6,8(a6)
    800022f0:	01083a87          	fld	fs5,16(a6)
    800022f4:	01883a07          	fld	fs4,24(a6)
    800022f8:	02083f87          	fld	ft11,32(a6)
    800022fc:	53c0f543          	fmadd.d	fa0,ft1,ft8,fa0
    80002300:	ebcb7ec3          	fmadd.d	ft9,fs6,ft8,ft9
    80002304:	8bcaf8c3          	fmadd.d	fa7,fs5,ft8,fa7
    80002308:	83ca7843          	fmadd.d	fa6,fs4,ft8,fa6
    8000230c:	f214ff43          	fmadd.d	ft10,fs1,ft1,ft10
    80002310:	9364f943          	fmadd.d	fs2,fs1,fs6,fs2
    80002314:	3354f343          	fmadd.d	ft6,fs1,fs5,ft6
    80002318:	7b44f7c3          	fmadd.d	fa5,fs1,fs4,fa5
    8000231c:	5bf4f5c3          	fmadd.d	fa1,fs1,ft11,fa1
    80002320:	2a80f2c3          	fmadd.d	ft5,ft1,fs0,ft5
    80002324:	228b7243          	fmadd.d	ft4,fs6,fs0,ft4
    80002328:	1a8af1c3          	fmadd.d	ft3,fs5,fs0,ft3
    8000232c:	128a7143          	fmadd.d	ft2,fs4,fs0,ft2
    80002330:	628ff643          	fmadd.d	fa2,ft11,fs0,fa2
    80002334:	02e0f043          	fmadd.d	ft0,ft1,fa4,ft0
    80002338:	caeb7cc3          	fmadd.d	fs9,fs6,fa4,fs9
    8000233c:	baeafbc3          	fmadd.d	fs7,fs5,fa4,fs7
    80002340:	c2ea7c43          	fmadd.d	fs8,fs4,fa4,fs8
    80002344:	6aeff6c3          	fmadd.d	fa3,ft11,fa4,fa3
    80002348:	3bcff3c3          	fmadd.d	ft7,ft11,ft8,ft7
    8000234c:	01a80833          	add	a6,a6,s10
    80002350:	0187b487          	fld	fs1,24(a5)
    80002354:	00083087          	fld	ft1,0(a6)
    80002358:	00883b07          	fld	fs6,8(a6)
    8000235c:	01083a87          	fld	fs5,16(a6)
    80002360:	01883a07          	fld	fs4,24(a6)
    80002364:	02083f87          	fld	ft11,32(a6)
    80002368:	0186b407          	fld	fs0,24(a3)
    8000236c:	01873707          	fld	fa4,24(a4)
    80002370:	01863e07          	fld	ft8,24(a2)
    80002374:	f214ff43          	fmadd.d	ft10,fs1,ft1,ft10
    80002378:	2a80f2c3          	fmadd.d	ft5,ft1,fs0,ft5
    8000237c:	1a8af1c3          	fmadd.d	ft3,fs5,fs0,ft3
    80002380:	02e0f043          	fmadd.d	ft0,ft1,fa4,ft0
    80002384:	9364f943          	fmadd.d	fs2,fs1,fs6,fs2
    80002388:	3354f343          	fmadd.d	ft6,fs1,fs5,ft6
    8000238c:	7b44f7c3          	fmadd.d	fa5,fs1,fs4,fa5
    80002390:	5bf4f5c3          	fmadd.d	fa1,fs1,ft11,fa1
    80002394:	228b7243          	fmadd.d	ft4,fs6,fs0,ft4
    80002398:	128a7143          	fmadd.d	ft2,fs4,fs0,ft2
    8000239c:	628ff643          	fmadd.d	fa2,ft11,fs0,fa2
    800023a0:	caeb7cc3          	fmadd.d	fs9,fs6,fa4,fs9
    800023a4:	baeafbc3          	fmadd.d	fs7,fs5,fa4,fs7
    800023a8:	ebcb7b43          	fmadd.d	fs6,fs6,ft8,ft9
    800023ac:	c2ea7c43          	fmadd.d	fs8,fs4,fa4,fs8
    800023b0:	6aeff6c3          	fmadd.d	fa3,ft11,fa4,fa3
    800023b4:	83ca7a43          	fmadd.d	fs4,fs4,ft8,fa6
    800023b8:	53c0f0c3          	fmadd.d	ft1,ft1,ft8,fa0
    800023bc:	8bcafac3          	fmadd.d	fs5,fs5,ft8,fa7
    800023c0:	3bcff3c3          	fmadd.d	ft7,ft11,ft8,ft7
    800023c4:	01a80833          	add	a6,a6,s10
    800023c8:	0207bf87          	fld	ft11,32(a5)
    800023cc:	0206bd87          	fld	fs11,32(a3)
    800023d0:	02073707          	fld	fa4,32(a4)
    800023d4:	02063e07          	fld	ft8,32(a2)
    800023d8:	00083507          	fld	fa0,0(a6)
    800023dc:	00883e87          	fld	ft9,8(a6)
    800023e0:	01083887          	fld	fa7,16(a6)
    800023e4:	01883807          	fld	fa6,24(a6)
    800023e8:	02083d07          	fld	fs10,32(a6)
    800023ec:	f2aff9c3          	fmadd.d	fs3,ft11,fa0,ft10
    800023f0:	2bb574c3          	fmadd.d	fs1,fa0,fs11,ft5
    800023f4:	23bef443          	fmadd.d	fs0,ft9,fs11,ft4
    800023f8:	02e57f43          	fmadd.d	ft10,fa0,fa4,ft0
    800023fc:	93dff943          	fmadd.d	fs2,ft11,ft9,fs2
    80002400:	331ff343          	fmadd.d	ft6,ft11,fa7,ft6
    80002404:	7b0ff7c3          	fmadd.d	fa5,ft11,fa6,fa5
    80002408:	13b87143          	fmadd.d	ft2,fa6,fs11,ft2
    8000240c:	caeefcc3          	fmadd.d	fs9,ft9,fa4,fs9
    80002410:	bae8fbc3          	fmadd.d	fs7,fa7,fa4,fs7
    80002414:	c2e87c43          	fmadd.d	fs8,fa6,fa4,fs8
    80002418:	0bc570c3          	fmadd.d	ft1,fa0,ft8,ft1
    8000241c:	b3cefec3          	fmadd.d	ft9,ft9,ft8,fs6
    80002420:	a3c87843          	fmadd.d	fa6,fa6,ft8,fs4
    80002424:	5baff5c3          	fmadd.d	fa1,ft11,fs10,fa1
    80002428:	63bd7643          	fmadd.d	fa2,fs10,fs11,fa2
    8000242c:	1bb8ffc3          	fmadd.d	ft11,fa7,fs11,ft3
    80002430:	6aed76c3          	fmadd.d	fa3,fs10,fa4,fa3
    80002434:	abc8f8c3          	fmadd.d	fa7,fa7,ft8,fs5
    80002438:	3bcd73c3          	fmadd.d	ft7,fs10,ft8,ft7
    8000243c:	01a80833          	add	a6,a6,s10
    80002440:	0287ba07          	fld	fs4,40(a5)
    80002444:	0286be07          	fld	ft8,40(a3)
    80002448:	02873707          	fld	fa4,40(a4)
    8000244c:	02863187          	fld	ft3,40(a2)
    80002450:	00083507          	fld	fa0,0(a6)
    80002454:	00883007          	fld	ft0,8(a6)
    80002458:	01083207          	fld	ft4,16(a6)
    8000245c:	01883287          	fld	ft5,24(a6)
    80002460:	02083d87          	fld	fs11,32(a6)
    80002464:	03078793          	addi	a5,a5,48
    80002468:	920a7943          	fmadd.d	fs2,fs4,ft0,fs2
    8000246c:	9aaa7b43          	fmadd.d	fs6,fs4,fa0,fs3
    80002470:	324a7343          	fmadd.d	ft6,fs4,ft4,ft6
    80002474:	7a5a77c3          	fmadd.d	fa5,fs4,ft5,fa5
    80002478:	5bba75c3          	fmadd.d	fa1,fs4,fs11,fa1
    8000247c:	43c07443          	fmadd.d	fs0,ft0,ft8,fs0
    80002480:	fbc27a43          	fmadd.d	fs4,ft4,ft8,ft11
    80002484:	cae07cc3          	fmadd.d	fs9,ft0,fa4,fs9
    80002488:	4bc574c3          	fmadd.d	fs1,fa0,ft8,fs1
    8000248c:	13c2f143          	fmadd.d	ft2,ft5,ft8,ft2
    80002490:	63cdf643          	fmadd.d	fa2,fs11,ft8,fa2
    80002494:	f2e57fc3          	fmadd.d	ft11,fa0,fa4,ft10
    80002498:	bae27bc3          	fmadd.d	fs7,ft4,fa4,fs7
    8000249c:	c2e2fc43          	fmadd.d	fs8,ft5,fa4,fs8
    800024a0:	6aedf6c3          	fmadd.d	fa3,fs11,fa4,fa3
    800024a4:	0a3570c3          	fmadd.d	ft1,fa0,ft3,ft1
    800024a8:	ea307043          	fmadd.d	ft0,ft0,ft3,ft9
    800024ac:	8a3278c3          	fmadd.d	fa7,ft4,ft3,fa7
    800024b0:	8232f843          	fmadd.d	fa6,ft5,ft3,fa6
    800024b4:	3a3df3c3          	fmadd.d	ft7,fs11,ft3,ft7
    800024b8:	01a80833          	add	a6,a6,s10
    800024bc:	03068693          	addi	a3,a3,48
    800024c0:	03070713          	addi	a4,a4,48
    800024c4:	03060613          	addi	a2,a2,48
    800024c8:	d2a7e0e3          	bltu	a5,a0,800021e8 <mm_cb+0xbc0>
    800024cc:	23290ad3          	fmv.d	fs5,fs2
    800024d0:	22f789d3          	fmv.d	fs3,fa5
    800024d4:	22948953          	fmv.d	fs2,fs1
    800024d8:	23ff8f53          	fmv.d	ft10,ft11
    800024dc:	228404d3          	fmv.d	fs1,fs0
    800024e0:	22210fd3          	fmv.d	ft11,ft2
    800024e4:	234a0453          	fmv.d	fs0,fs4
    800024e8:	239c8ed3          	fmv.d	ft9,fs9
    800024ec:	22630a53          	fmv.d	fs4,ft6
    800024f0:	237b8e53          	fmv.d	ft8,fs7
    800024f4:	238c0153          	fmv.d	ft2,fs8
    800024f8:	23188553          	fmv.d	fa0,fa7
    800024fc:	23080753          	fmv.d	fa4,fa6
    80002500:	227387d3          	fmv.d	fa5,ft7
    80002504:	00030813          	mv	a6,t1
    80002508:	01d887b3          	add	a5,a7,t4
    8000250c:	0b057063          	bleu	a6,a0,800025ac <mm_cb+0xf84>
    80002510:	009e0333          	add	t1,t3,s1
    80002514:	009d8633          	add	a2,s11,s1
    80002518:	009a86b3          	add	a3,s5,s1
    8000251c:	00050713          	mv	a4,a0
    80002520:	00073307          	fld	ft6,0(a4)
    80002524:	00033287          	fld	ft5,0(t1)
    80002528:	00063207          	fld	ft4,0(a2)
    8000252c:	0006b187          	fld	ft3,0(a3)
    80002530:	0007bc07          	fld	fs8,0(a5)
    80002534:	0087bb87          	fld	fs7,8(a5)
    80002538:	0107b887          	fld	fa7,16(a5)
    8000253c:	0187b807          	fld	fa6,24(a5)
    80002540:	0207b387          	fld	ft7,32(a5)
    80002544:	00870713          	addi	a4,a4,8
    80002548:	b3837b43          	fmadd.d	fs6,ft6,fs8,fs6
    8000254c:	ab737ac3          	fmadd.d	fs5,ft6,fs7,fs5
    80002550:	a3137a43          	fmadd.d	fs4,ft6,fa7,fs4
    80002554:	9b0379c3          	fmadd.d	fs3,ft6,fa6,fs3
    80002558:	5a7375c3          	fmadd.d	fa1,ft6,ft7,fa1
    8000255c:	925c7943          	fmadd.d	fs2,fs8,ft5,fs2
    80002560:	4a5bf4c3          	fmadd.d	fs1,fs7,ft5,fs1
    80002564:	4258f443          	fmadd.d	fs0,fa7,ft5,fs0
    80002568:	fa587fc3          	fmadd.d	ft11,fa6,ft5,ft11
    8000256c:	6253f643          	fmadd.d	fa2,ft7,ft5,fa2
    80002570:	f24c7f43          	fmadd.d	ft10,fs8,ft4,ft10
    80002574:	ea4bfec3          	fmadd.d	ft9,fs7,ft4,ft9
    80002578:	e248fe43          	fmadd.d	ft8,fa7,ft4,ft8
    8000257c:	12487143          	fmadd.d	ft2,fa6,ft4,ft2
    80002580:	6a43f6c3          	fmadd.d	fa3,ft7,ft4,fa3
    80002584:	0a3c70c3          	fmadd.d	ft1,fs8,ft3,ft1
    80002588:	023bf043          	fmadd.d	ft0,fs7,ft3,ft0
    8000258c:	5238f543          	fmadd.d	fa0,fa7,ft3,fa0
    80002590:	72387743          	fmadd.d	fa4,fa6,ft3,fa4
    80002594:	7a33f7c3          	fmadd.d	fa5,ft7,ft3,fa5
    80002598:	01a787b3          	add	a5,a5,s10
    8000259c:	00830313          	addi	t1,t1,8
    800025a0:	00860613          	addi	a2,a2,8
    800025a4:	00868693          	addi	a3,a3,8
    800025a8:	f7076ce3          	bltu	a4,a6,80002520 <mm_cb+0xef8>
    800025ac:	0165b027          	fsd	fs6,0(a1)
    800025b0:	0155b427          	fsd	fs5,8(a1)
    800025b4:	0145b827          	fsd	fs4,16(a1)
    800025b8:	0135bc27          	fsd	fs3,24(a1)
    800025bc:	02b5b027          	fsd	fa1,32(a1)
    800025c0:	0d25b427          	fsd	fs2,200(a1)
    800025c4:	0c95b827          	fsd	fs1,208(a1)
    800025c8:	0c85bc27          	fsd	fs0,216(a1)
    800025cc:	0ff5b027          	fsd	ft11,224(a1)
    800025d0:	0ec5b427          	fsd	fa2,232(a1)
    800025d4:	19e5b827          	fsd	ft10,400(a1)
    800025d8:	19d5bc27          	fsd	ft9,408(a1)
    800025dc:	1bc5b027          	fsd	ft8,416(a1)
    800025e0:	1a25b427          	fsd	ft2,424(a1)
    800025e4:	1ad5b827          	fsd	fa3,432(a1)
    800025e8:	2415bc27          	fsd	ft1,600(a1)
    800025ec:	2605b027          	fsd	ft0,608(a1)
    800025f0:	26a5b427          	fsd	fa0,616(a1)
    800025f4:	26e5b827          	fsd	fa4,624(a1)
    800025f8:	26f5bc27          	fsd	fa5,632(a1)
    800025fc:	02888893          	addi	a7,a7,40
    80002600:	02858593          	addi	a1,a1,40
    80002604:	b3191ee3          	bne	s2,a7,80002140 <mm_cb+0xb18>
    80002608:	f2043803          	ld	a6,-224(s0)
    8000260c:	f2843703          	ld	a4,-216(s0)
    80002610:	e7043603          	ld	a2,-400(s0)
    80002614:	00098893          	mv	a7,s3
    80002618:	00048693          	mv	a3,s1
    8000261c:	00090793          	mv	a5,s2
    80002620:	01413023          	sd	s4,0(sp)
    80002624:	00000593          	li	a1,0
    80002628:	000b0513          	mv	a0,s6
    8000262c:	e31fe0ef          	jal	8000145c <mm_naive>
    80002630:	e9043783          	ld	a5,-368(s0)
    80002634:	32098993          	addi	s3,s3,800
    80002638:	00f484b3          	add	s1,s1,a5
    8000263c:	af3c12e3          	bne	s8,s3,80002120 <mm_cb+0xaf8>
    80002640:	ed843a83          	ld	s5,-296(s0)
    80002644:	f2043803          	ld	a6,-224(s0)
    80002648:	eb843783          	ld	a5,-328(s0)
    8000264c:	f2843703          	ld	a4,-216(s0)
    80002650:	de843683          	ld	a3,-536(s0)
    80002654:	e7043603          	ld	a2,-400(s0)
    80002658:	01413023          	sd	s4,0(sp)
    8000265c:	017a88b3          	add	a7,s5,s7
    80002660:	01900593          	li	a1,25
    80002664:	00000513          	li	a0,0
    80002668:	df5fe0ef          	jal	8000145c <mm_naive>
    8000266c:	ea043783          	ld	a5,-352(s0)
    80002670:	ef843703          	ld	a4,-264(s0)
    80002674:	eb243c23          	sd	s2,-328(s0)
    80002678:	01978793          	addi	a5,a5,25
    8000267c:	eaf43023          	sd	a5,-352(s0)
    80002680:	dae7e463          	bltu	a5,a4,80001c28 <mm_cb+0x600>
    80002684:	eb043783          	ld	a5,-336(s0)
    80002688:	ef843703          	ld	a4,-264(s0)
    8000268c:	14f760e3          	bltu	a4,a5,80002fcc <mm_cb+0x19a4>
    80002690:	ec043783          	ld	a5,-320(s0)
    80002694:	e8043703          	ld	a4,-384(s0)
    80002698:	00e787b3          	add	a5,a5,a4
    8000269c:	eef43023          	sd	a5,-288(s0)
    800026a0:	ee043703          	ld	a4,-288(s0)
    800026a4:	e1043683          	ld	a3,-496(s0)
    800026a8:	e7843783          	ld	a5,-392(s0)
    800026ac:	ece43023          	sd	a4,-320(s0)
    800026b0:	e9843703          	ld	a4,-360(s0)
    800026b4:	01878793          	addi	a5,a5,24
    800026b8:	e6f43c23          	sd	a5,-392(s0)
    800026bc:	00d70733          	add	a4,a4,a3
    800026c0:	e8e43c23          	sd	a4,-360(s0)
    800026c4:	f0043703          	ld	a4,-256(s0)
    800026c8:	d0e7e663          	bltu	a5,a4,80001bd4 <mm_cb+0x5ac>
    800026cc:	e6043783          	ld	a5,-416(s0)
    800026d0:	f0043703          	ld	a4,-256(s0)
    800026d4:	df843d03          	ld	s10,-520(s0)
    800026d8:	00f76863          	bltu	a4,a5,800026e8 <mm_cb+0x10c0>
    800026dc:	7940006f          	j	80002e70 <mm_cb+0x1848>
    800026e0:	e6043783          	ld	a5,-416(s0)
    800026e4:	06078ce3          	beqz	a5,80002f5c <mm_cb+0x1934>
    800026e8:	eb043783          	ld	a5,-336(s0)
    800026ec:	76078463          	beqz	a5,80002e54 <mm_cb+0x182c>
    800026f0:	e6043783          	ld	a5,-416(s0)
    800026f4:	01800713          	li	a4,24
    800026f8:	f2043683          	ld	a3,-224(s0)
    800026fc:	02e7f733          	remu	a4,a5,a4
    80002700:	00043783          	ld	a5,0(s0)
    80002704:	f2843603          	ld	a2,-216(s0)
    80002708:	00369293          	slli	t0,a3,0x3
    8000270c:	00379d13          	slli	s10,a5,0x3
    80002710:	00169793          	slli	a5,a3,0x1
    80002714:	00d787b3          	add	a5,a5,a3
    80002718:	00479593          	slli	a1,a5,0x4
    8000271c:	00679793          	slli	a5,a5,0x6
    80002720:	e2f43823          	sd	a5,-464(s0)
    80002724:	00561793          	slli	a5,a2,0x5
    80002728:	e8f43823          	sd	a5,-368(s0)
    8000272c:	00043783          	ld	a5,0(s0)
    80002730:	00361d93          	slli	s11,a2,0x3
    80002734:	e5043683          	ld	a3,-432(s0)
    80002738:	00579793          	slli	a5,a5,0x5
    8000273c:	e8f43c23          	sd	a5,-360(s0)
    80002740:	ecd43023          	sd	a3,-320(s0)
    80002744:	e2b43c23          	sd	a1,-456(s0)
    80002748:	ec043423          	sd	zero,-312(s0)
    8000274c:	ffc77793          	andi	a5,a4,-4
    80002750:	00078613          	mv	a2,a5
    80002754:	eef43423          	sd	a5,-280(s0)
    80002758:	f0043783          	ld	a5,-256(s0)
    8000275c:	00377713          	andi	a4,a4,3
    80002760:	e4e43823          	sd	a4,-432(s0)
    80002764:	03a786b3          	mul	a3,a5,s10
    80002768:	e8843703          	ld	a4,-376(s0)
    8000276c:	00d70733          	add	a4,a4,a3
    80002770:	02cd86b3          	mul	a3,s11,a2
    80002774:	eee43823          	sd	a4,-272(s0)
    80002778:	03b787b3          	mul	a5,a5,s11
    8000277c:	e4d43423          	sd	a3,-440(s0)
    80002780:	e5843683          	ld	a3,-424(s0)
    80002784:	00f687b3          	add	a5,a3,a5
    80002788:	e4f43c23          	sd	a5,-424(s0)
    8000278c:	02cd07b3          	mul	a5,s10,a2
    80002790:	e4f43023          	sd	a5,-448(s0)
    80002794:	000d0793          	mv	a5,s10
    80002798:	00028d13          	mv	s10,t0
    8000279c:	00078293          	mv	t0,a5
    800027a0:	f0843783          	ld	a5,-248(s0)
    800027a4:	68078263          	beqz	a5,80002e28 <mm_cb+0x1800>
    800027a8:	ec843703          	ld	a4,-312(s0)
    800027ac:	eb043783          	ld	a5,-336(s0)
    800027b0:	40e787b3          	sub	a5,a5,a4
    800027b4:	e8f43023          	sd	a5,-384(s0)
    800027b8:	01900713          	li	a4,25
    800027bc:	00f77463          	bleu	a5,a4,800027c4 <mm_cb+0x119c>
    800027c0:	e8e43023          	sd	a4,-384(s0)
    800027c4:	e4043703          	ld	a4,-448(s0)
    800027c8:	ef043783          	ld	a5,-272(s0)
    800027cc:	00500693          	li	a3,5
    800027d0:	ec043823          	sd	zero,-304(s0)
    800027d4:	00e787b3          	add	a5,a5,a4
    800027d8:	e8043703          	ld	a4,-384(s0)
    800027dc:	e6f43023          	sd	a5,-416(s0)
    800027e0:	e5843783          	ld	a5,-424(s0)
    800027e4:	02d753b3          	divu	t2,a4,a3
    800027e8:	00028c13          	mv	s8,t0
    800027ec:	eaf43023          	sd	a5,-352(s0)
    800027f0:	ec043783          	ld	a5,-320(s0)
    800027f4:	f0f43c23          	sd	a5,-232(s0)
    800027f8:	00239793          	slli	a5,t2,0x2
    800027fc:	007783b3          	add	t2,a5,t2
    80002800:	00070793          	mv	a5,a4
    80002804:	02d7f7b3          	remu	a5,a5,a3
    80002808:	00038993          	mv	s3,t2
    8000280c:	e6f43c23          	sd	a5,-392(s0)
    80002810:	00339793          	slli	a5,t2,0x3
    80002814:	eef43023          	sd	a5,-288(s0)
    80002818:	f0843783          	ld	a5,-248(s0)
    8000281c:	ed043703          	ld	a4,-304(s0)
    80002820:	40e782b3          	sub	t0,a5,a4
    80002824:	01800793          	li	a5,24
    80002828:	0057f463          	bleu	t0,a5,80002830 <mm_cb+0x1208>
    8000282c:	00078293          	mv	t0,a5
    80002830:	ee843783          	ld	a5,-280(s0)
    80002834:	58078663          	beqz	a5,80002dc0 <mm_cb+0x1798>
    80002838:	00600793          	li	a5,6
    8000283c:	02f2d933          	divu	s2,t0,a5
    80002840:	ee043703          	ld	a4,-288(s0)
    80002844:	f1843783          	ld	a5,-232(s0)
    80002848:	ef043b83          	ld	s7,-272(s0)
    8000284c:	ea043483          	ld	s1,-352(s0)
    80002850:	00e787b3          	add	a5,a5,a4
    80002854:	eaf43c23          	sd	a5,-328(s0)
    80002858:	00329793          	slli	a5,t0,0x3
    8000285c:	e6f43823          	sd	a5,-400(s0)
    80002860:	00000c93          	li	s9,0
    80002864:	ec543c23          	sd	t0,-296(s0)
    80002868:	00191793          	slli	a5,s2,0x1
    8000286c:	012787b3          	add	a5,a5,s2
    80002870:	00479793          	slli	a5,a5,0x4
    80002874:	00fd8a33          	add	s4,s11,a5
    80002878:	e6f43423          	sd	a5,-408(s0)
    8000287c:	e3843783          	ld	a5,-456(s0)
    80002880:	01ba0ab3          	add	s5,s4,s11
    80002884:	01ba8b33          	add	s6,s5,s11
    80002888:	02f90933          	mul	s2,s2,a5
    8000288c:	4e098263          	beqz	s3,80002d70 <mm_cb+0x1748>
    80002890:	e7043783          	ld	a5,-400(s0)
    80002894:	017c0833          	add	a6,s8,s7
    80002898:	f1843e83          	ld	t4,-232(s0)
    8000289c:	00f48e33          	add	t3,s1,a5
    800028a0:	e6843783          	ld	a5,-408(s0)
    800028a4:	010c0533          	add	a0,s8,a6
    800028a8:	00ac0333          	add	t1,s8,a0
    800028ac:	00f485b3          	add	a1,s1,a5
    800028b0:	000b8893          	mv	a7,s7
    800028b4:	00000f13          	li	t5,0
    800028b8:	0008bb07          	fld	fs6,0(a7)
    800028bc:	0088ba87          	fld	fs5,8(a7)
    800028c0:	0108ba07          	fld	fs4,16(a7)
    800028c4:	0188b987          	fld	fs3,24(a7)
    800028c8:	0208b587          	fld	fa1,32(a7)
    800028cc:	00083907          	fld	fs2,0(a6)
    800028d0:	00883487          	fld	fs1,8(a6)
    800028d4:	01083407          	fld	fs0,16(a6)
    800028d8:	01883f87          	fld	ft11,24(a6)
    800028dc:	02083607          	fld	fa2,32(a6)
    800028e0:	00053f07          	fld	ft10,0(a0)
    800028e4:	00853e87          	fld	ft9,8(a0)
    800028e8:	01053e07          	fld	ft8,16(a0)
    800028ec:	01853187          	fld	ft3,24(a0)
    800028f0:	02053107          	fld	ft2,32(a0)
    800028f4:	00033087          	fld	ft1,0(t1)
    800028f8:	00833007          	fld	ft0,8(t1)
    800028fc:	01033507          	fld	fa0,16(t1)
    80002900:	01833707          	fld	fa4,24(t1)
    80002904:	02033787          	fld	fa5,32(t1)
    80002908:	34b4fc63          	bleu	a1,s1,80002c60 <mm_cb+0x1638>
    8000290c:	01b486b3          	add	a3,s1,s11
    80002910:	22318bd3          	fmv.d	fs7,ft3
    80002914:	22f78253          	fmv.d	ft4,fa5
    80002918:	234a0853          	fmv.d	fa6,fs4
    8000291c:	23ef07d3          	fmv.d	fa5,ft10
    80002920:	232903d3          	fmv.d	ft7,fs2
    80002924:	22948353          	fmv.d	ft6,fs1
    80002928:	228402d3          	fmv.d	ft5,fs0
    8000292c:	23ff81d3          	fmv.d	ft3,ft11
    80002930:	236b0f53          	fmv.d	ft10,fs6
    80002934:	000e0293          	mv	t0,t3
    80002938:	01b68733          	add	a4,a3,s11
    8000293c:	000f0f93          	mv	t6,t5
    80002940:	01b70633          	add	a2,a4,s11
    80002944:	00048793          	mv	a5,s1
    80002948:	000e8e13          	mv	t3,t4
    8000294c:	00028f13          	mv	t5,t0
    80002950:	0007bc87          	fld	fs9,0(a5)
    80002954:	0006bc07          	fld	fs8,0(a3)
    80002958:	00063f87          	fld	ft11,0(a2)
    8000295c:	00073687          	fld	fa3,0(a4)
    80002960:	000e3a07          	fld	fs4,0(t3)
    80002964:	008e3907          	fld	fs2,8(t3)
    80002968:	010e3487          	fld	fs1,16(t3)
    8000296c:	018e3407          	fld	fs0,24(t3)
    80002970:	020e3887          	fld	fa7,32(t3)
    80002974:	f34cff43          	fmadd.d	ft10,fs9,fs4,ft10
    80002978:	ab2cfac3          	fmadd.d	fs5,fs9,fs2,fs5
    8000297c:	829cf843          	fmadd.d	fa6,fs9,fs1,fa6
    80002980:	9a8cf9c3          	fmadd.d	fs3,fs9,fs0,fs3
    80002984:	5b1cf5c3          	fmadd.d	fa1,fs9,fa7,fa1
    80002988:	3b8a73c3          	fmadd.d	ft7,fs4,fs8,ft7
    8000298c:	33897343          	fmadd.d	ft6,fs2,fs8,ft6
    80002990:	2b84f2c3          	fmadd.d	ft5,fs1,fs8,ft5
    80002994:	1b8471c3          	fmadd.d	ft3,fs0,fs8,ft3
    80002998:	6388f643          	fmadd.d	fa2,fa7,fs8,fa2
    8000299c:	7ada77c3          	fmadd.d	fa5,fs4,fa3,fa5
    800029a0:	ead97ec3          	fmadd.d	ft9,fs2,fa3,ft9
    800029a4:	e2d4fe43          	fmadd.d	ft8,fs1,fa3,ft8
    800029a8:	bad47bc3          	fmadd.d	fs7,fs0,fa3,fs7
    800029ac:	0bfa70c3          	fmadd.d	ft1,fs4,ft11,ft1
    800029b0:	12d8f6c3          	fmadd.d	fa3,fa7,fa3,ft2
    800029b4:	03f97043          	fmadd.d	ft0,fs2,ft11,ft0
    800029b8:	23f8f8c3          	fmadd.d	fa7,fa7,ft11,ft4
    800029bc:	53f4f543          	fmadd.d	fa0,fs1,ft11,fa0
    800029c0:	73f47743          	fmadd.d	fa4,fs0,ft11,fa4
    800029c4:	01ae0e33          	add	t3,t3,s10
    800029c8:	0087bb07          	fld	fs6,8(a5)
    800029cc:	0086ba07          	fld	fs4,8(a3)
    800029d0:	00873107          	fld	ft2,8(a4)
    800029d4:	00863207          	fld	ft4,8(a2)
    800029d8:	000e3907          	fld	fs2,0(t3)
    800029dc:	008e3487          	fld	fs1,8(t3)
    800029e0:	010e3407          	fld	fs0,16(t3)
    800029e4:	018e3f87          	fld	ft11,24(t3)
    800029e8:	020e3c07          	fld	fs8,32(t3)
    800029ec:	f32b7f43          	fmadd.d	ft10,fs6,fs2,ft10
    800029f0:	aa9b7ac3          	fmadd.d	fs5,fs6,fs1,fs5
    800029f4:	828b7843          	fmadd.d	fa6,fs6,fs0,fa6
    800029f8:	9bfb79c3          	fmadd.d	fs3,fs6,ft11,fs3
    800029fc:	5b8b75c3          	fmadd.d	fa1,fs6,fs8,fa1
    80002a00:	3b4973c3          	fmadd.d	ft7,fs2,fs4,ft7
    80002a04:	3344f343          	fmadd.d	ft6,fs1,fs4,ft6
    80002a08:	2b4472c3          	fmadd.d	ft5,fs0,fs4,ft5
    80002a0c:	1b4ff1c3          	fmadd.d	ft3,ft11,fs4,ft3
    80002a10:	634c7643          	fmadd.d	fa2,fs8,fs4,fa2
    80002a14:	7a2977c3          	fmadd.d	fa5,fs2,ft2,fa5
    80002a18:	ea24fec3          	fmadd.d	ft9,fs1,ft2,ft9
    80002a1c:	e2247e43          	fmadd.d	ft8,fs0,ft2,ft8
    80002a20:	ba2ffbc3          	fmadd.d	fs7,ft11,ft2,fs7
    80002a24:	6a2c76c3          	fmadd.d	fa3,fs8,ft2,fa3
    80002a28:	0a4970c3          	fmadd.d	ft1,fs2,ft4,ft1
    80002a2c:	0244f043          	fmadd.d	ft0,fs1,ft4,ft0
    80002a30:	52447543          	fmadd.d	fa0,fs0,ft4,fa0
    80002a34:	724ff743          	fmadd.d	fa4,ft11,ft4,fa4
    80002a38:	8a4c7243          	fmadd.d	ft4,fs8,ft4,fa7
    80002a3c:	01ae0e33          	add	t3,t3,s10
    80002a40:	0107bc07          	fld	fs8,16(a5)
    80002a44:	0106bb07          	fld	fs6,16(a3)
    80002a48:	01073107          	fld	ft2,16(a4)
    80002a4c:	01063887          	fld	fa7,16(a2)
    80002a50:	000e3907          	fld	fs2,0(t3)
    80002a54:	008e3487          	fld	fs1,8(t3)
    80002a58:	010e3407          	fld	fs0,16(t3)
    80002a5c:	018e3f87          	fld	ft11,24(t3)
    80002a60:	020e3a07          	fld	fs4,32(t3)
    80002a64:	0b1970c3          	fmadd.d	ft1,fs2,fa7,ft1
    80002a68:	0314f043          	fmadd.d	ft0,fs1,fa7,ft0
    80002a6c:	6a2a76c3          	fmadd.d	fa3,fs4,ft2,fa3
    80002a70:	53147543          	fmadd.d	fa0,fs0,fa7,fa0
    80002a74:	731ff743          	fmadd.d	fa4,ft11,fa7,fa4
    80002a78:	f32c7f43          	fmadd.d	ft10,fs8,fs2,ft10
    80002a7c:	aa9c7ac3          	fmadd.d	fs5,fs8,fs1,fs5
    80002a80:	828c7843          	fmadd.d	fa6,fs8,fs0,fa6
    80002a84:	9bfc79c3          	fmadd.d	fs3,fs8,ft11,fs3
    80002a88:	5b4c75c3          	fmadd.d	fa1,fs8,fs4,fa1
    80002a8c:	3b6973c3          	fmadd.d	ft7,fs2,fs6,ft7
    80002a90:	3364f343          	fmadd.d	ft6,fs1,fs6,ft6
    80002a94:	2b6472c3          	fmadd.d	ft5,fs0,fs6,ft5
    80002a98:	1b6ff1c3          	fmadd.d	ft3,ft11,fs6,ft3
    80002a9c:	636a7643          	fmadd.d	fa2,fs4,fs6,fa2
    80002aa0:	7a2977c3          	fmadd.d	fa5,fs2,ft2,fa5
    80002aa4:	ea24fec3          	fmadd.d	ft9,fs1,ft2,ft9
    80002aa8:	e2247e43          	fmadd.d	ft8,fs0,ft2,ft8
    80002aac:	ba2ffbc3          	fmadd.d	fs7,ft11,ft2,fs7
    80002ab0:	231a7243          	fmadd.d	ft4,fs4,fa7,ft4
    80002ab4:	01ae0e33          	add	t3,t3,s10
    80002ab8:	0187bc07          	fld	fs8,24(a5)
    80002abc:	000e3907          	fld	fs2,0(t3)
    80002ac0:	008e3487          	fld	fs1,8(t3)
    80002ac4:	010e3407          	fld	fs0,16(t3)
    80002ac8:	018e3f87          	fld	ft11,24(t3)
    80002acc:	020e3a07          	fld	fs4,32(t3)
    80002ad0:	0186bb07          	fld	fs6,24(a3)
    80002ad4:	01863887          	fld	fa7,24(a2)
    80002ad8:	01873107          	fld	ft2,24(a4)
    80002adc:	f32c7f43          	fmadd.d	ft10,fs8,fs2,ft10
    80002ae0:	231a7243          	fmadd.d	ft4,fs4,fa7,ft4
    80002ae4:	aa9c7ac3          	fmadd.d	fs5,fs8,fs1,fs5
    80002ae8:	828c7843          	fmadd.d	fa6,fs8,fs0,fa6
    80002aec:	9bfc79c3          	fmadd.d	fs3,fs8,ft11,fs3
    80002af0:	5b4c75c3          	fmadd.d	fa1,fs8,fs4,fa1
    80002af4:	3b6973c3          	fmadd.d	ft7,fs2,fs6,ft7
    80002af8:	3364f343          	fmadd.d	ft6,fs1,fs6,ft6
    80002afc:	2b6472c3          	fmadd.d	ft5,fs0,fs6,ft5
    80002b00:	1b6ff1c3          	fmadd.d	ft3,ft11,fs6,ft3
    80002b04:	636a7643          	fmadd.d	fa2,fs4,fs6,fa2
    80002b08:	7a2977c3          	fmadd.d	fa5,fs2,ft2,fa5
    80002b0c:	ea24fec3          	fmadd.d	ft9,fs1,ft2,ft9
    80002b10:	e2247e43          	fmadd.d	ft8,fs0,ft2,ft8
    80002b14:	ba2ffbc3          	fmadd.d	fs7,ft11,ft2,fs7
    80002b18:	0b197943          	fmadd.d	fs2,fs2,fa7,ft1
    80002b1c:	6a2a7143          	fmadd.d	ft2,fs4,ft2,fa3
    80002b20:	0314f4c3          	fmadd.d	fs1,fs1,fa7,ft0
    80002b24:	53147443          	fmadd.d	fs0,fs0,fa7,fa0
    80002b28:	731fffc3          	fmadd.d	ft11,ft11,fa7,fa4
    80002b2c:	01ae0e33          	add	t3,t3,s10
    80002b30:	0207bc07          	fld	fs8,32(a5)
    80002b34:	02073687          	fld	fa3,32(a4)
    80002b38:	0206bb07          	fld	fs6,32(a3)
    80002b3c:	02063887          	fld	fa7,32(a2)
    80002b40:	000e3087          	fld	ft1,0(t3)
    80002b44:	008e3007          	fld	ft0,8(t3)
    80002b48:	010e3507          	fld	fa0,16(t3)
    80002b4c:	018e3707          	fld	fa4,24(t3)
    80002b50:	020e3a07          	fld	fs4,32(t3)
    80002b54:	f21c7f43          	fmadd.d	ft10,fs8,ft1,ft10
    80002b58:	aa0c7ac3          	fmadd.d	fs5,fs8,ft0,fs5
    80002b5c:	82ac7843          	fmadd.d	fa6,fs8,fa0,fa6
    80002b60:	9aec79c3          	fmadd.d	fs3,fs8,fa4,fs3
    80002b64:	5b4c75c3          	fmadd.d	fa1,fs8,fs4,fa1
    80002b68:	7ad0f7c3          	fmadd.d	fa5,ft1,fa3,fa5
    80002b6c:	ead07ec3          	fmadd.d	ft9,ft0,fa3,ft9
    80002b70:	e2d57e43          	fmadd.d	ft8,fa0,fa3,ft8
    80002b74:	bad77bc3          	fmadd.d	fs7,fa4,fa3,fs7
    80002b78:	12da7143          	fmadd.d	ft2,fs4,fa3,ft2
    80002b7c:	9310f943          	fmadd.d	fs2,ft1,fa7,fs2
    80002b80:	4b1074c3          	fmadd.d	fs1,ft0,fa7,fs1
    80002b84:	43157443          	fmadd.d	fs0,fa0,fa7,fs0
    80002b88:	fb177fc3          	fmadd.d	ft11,fa4,fa7,ft11
    80002b8c:	3b60f3c3          	fmadd.d	ft7,ft1,fs6,ft7
    80002b90:	231a78c3          	fmadd.d	fa7,fs4,fa7,ft4
    80002b94:	33607343          	fmadd.d	ft6,ft0,fs6,ft6
    80002b98:	2b6572c3          	fmadd.d	ft5,fa0,fs6,ft5
    80002b9c:	1b6771c3          	fmadd.d	ft3,fa4,fs6,ft3
    80002ba0:	636a7643          	fmadd.d	fa2,fs4,fs6,fa2
    80002ba4:	01ae0e33          	add	t3,t3,s10
    80002ba8:	0287bc87          	fld	fs9,40(a5)
    80002bac:	0286ba07          	fld	fs4,40(a3)
    80002bb0:	02873687          	fld	fa3,40(a4)
    80002bb4:	02863207          	fld	ft4,40(a2)
    80002bb8:	000e3087          	fld	ft1,0(t3)
    80002bbc:	008e3007          	fld	ft0,8(t3)
    80002bc0:	010e3507          	fld	fa0,16(t3)
    80002bc4:	018e3707          	fld	fa4,24(t3)
    80002bc8:	020e3c07          	fld	fs8,32(t3)
    80002bcc:	03078793          	addi	a5,a5,48
    80002bd0:	f21cff43          	fmadd.d	ft10,fs9,ft1,ft10
    80002bd4:	aa0cfac3          	fmadd.d	fs5,fs9,ft0,fs5
    80002bd8:	82acf843          	fmadd.d	fa6,fs9,fa0,fa6
    80002bdc:	9aecf9c3          	fmadd.d	fs3,fs9,fa4,fs3
    80002be0:	3b40f3c3          	fmadd.d	ft7,ft1,fs4,ft7
    80002be4:	33407343          	fmadd.d	ft6,ft0,fs4,ft6
    80002be8:	2b4572c3          	fmadd.d	ft5,fa0,fs4,ft5
    80002bec:	1b4771c3          	fmadd.d	ft3,fa4,fs4,ft3
    80002bf0:	7ad0f7c3          	fmadd.d	fa5,ft1,fa3,fa5
    80002bf4:	ead07ec3          	fmadd.d	ft9,ft0,fa3,ft9
    80002bf8:	e2d57e43          	fmadd.d	ft8,fa0,fa3,ft8
    80002bfc:	bad77bc3          	fmadd.d	fs7,fa4,fa3,fs7
    80002c00:	9240f0c3          	fmadd.d	ft1,ft1,ft4,fs2
    80002c04:	4a407043          	fmadd.d	ft0,ft0,ft4,fs1
    80002c08:	42457543          	fmadd.d	fa0,fa0,ft4,fs0
    80002c0c:	fa477743          	fmadd.d	fa4,fa4,ft4,ft11
    80002c10:	5b8cf5c3          	fmadd.d	fa1,fs9,fs8,fa1
    80002c14:	634c7643          	fmadd.d	fa2,fs8,fs4,fa2
    80002c18:	12dc7143          	fmadd.d	ft2,fs8,fa3,ft2
    80002c1c:	8a4c7243          	fmadd.d	ft4,fs8,ft4,fa7
    80002c20:	01ae0e33          	add	t3,t3,s10
    80002c24:	03068693          	addi	a3,a3,48
    80002c28:	03070713          	addi	a4,a4,48
    80002c2c:	03060613          	addi	a2,a2,48
    80002c30:	d2b7e0e3          	bltu	a5,a1,80002950 <mm_cb+0x1328>
    80002c34:	23ef0b53          	fmv.d	fs6,ft10
    80002c38:	22318fd3          	fmv.d	ft11,ft3
    80002c3c:	22f78f53          	fmv.d	ft10,fa5
    80002c40:	23080a53          	fmv.d	fs4,fa6
    80002c44:	22738953          	fmv.d	fs2,ft7
    80002c48:	226304d3          	fmv.d	fs1,ft6
    80002c4c:	22528453          	fmv.d	fs0,ft5
    80002c50:	237b81d3          	fmv.d	ft3,fs7
    80002c54:	224207d3          	fmv.d	fa5,ft4
    80002c58:	000f0e13          	mv	t3,t5
    80002c5c:	000f8f13          	mv	t5,t6
    80002c60:	012e87b3          	add	a5,t4,s2
    80002c64:	0bc5f063          	bleu	t3,a1,80002d04 <mm_cb+0x16dc>
    80002c68:	009a0fb3          	add	t6,s4,s1
    80002c6c:	009a8633          	add	a2,s5,s1
    80002c70:	009b06b3          	add	a3,s6,s1
    80002c74:	00058713          	mv	a4,a1
    80002c78:	00073307          	fld	ft6,0(a4)
    80002c7c:	000fb287          	fld	ft5,0(t6)
    80002c80:	00063207          	fld	ft4,0(a2)
    80002c84:	0006b687          	fld	fa3,0(a3)
    80002c88:	0007bc07          	fld	fs8,0(a5)
    80002c8c:	0087bb87          	fld	fs7,8(a5)
    80002c90:	0107b887          	fld	fa7,16(a5)
    80002c94:	0187b807          	fld	fa6,24(a5)
    80002c98:	0207b387          	fld	ft7,32(a5)
    80002c9c:	00870713          	addi	a4,a4,8
    80002ca0:	b3837b43          	fmadd.d	fs6,ft6,fs8,fs6
    80002ca4:	ab737ac3          	fmadd.d	fs5,ft6,fs7,fs5
    80002ca8:	a3137a43          	fmadd.d	fs4,ft6,fa7,fs4
    80002cac:	9b0379c3          	fmadd.d	fs3,ft6,fa6,fs3
    80002cb0:	5a7375c3          	fmadd.d	fa1,ft6,ft7,fa1
    80002cb4:	925c7943          	fmadd.d	fs2,fs8,ft5,fs2
    80002cb8:	4a5bf4c3          	fmadd.d	fs1,fs7,ft5,fs1
    80002cbc:	4258f443          	fmadd.d	fs0,fa7,ft5,fs0
    80002cc0:	fa587fc3          	fmadd.d	ft11,fa6,ft5,ft11
    80002cc4:	6253f643          	fmadd.d	fa2,ft7,ft5,fa2
    80002cc8:	f24c7f43          	fmadd.d	ft10,fs8,ft4,ft10
    80002ccc:	ea4bfec3          	fmadd.d	ft9,fs7,ft4,ft9
    80002cd0:	e248fe43          	fmadd.d	ft8,fa7,ft4,ft8
    80002cd4:	1a4871c3          	fmadd.d	ft3,fa6,ft4,ft3
    80002cd8:	1243f143          	fmadd.d	ft2,ft7,ft4,ft2
    80002cdc:	0adc70c3          	fmadd.d	ft1,fs8,fa3,ft1
    80002ce0:	02dbf043          	fmadd.d	ft0,fs7,fa3,ft0
    80002ce4:	52d8f543          	fmadd.d	fa0,fa7,fa3,fa0
    80002ce8:	72d87743          	fmadd.d	fa4,fa6,fa3,fa4
    80002cec:	7ad3f7c3          	fmadd.d	fa5,ft7,fa3,fa5
    80002cf0:	01a787b3          	add	a5,a5,s10
    80002cf4:	008f8f93          	addi	t6,t6,8
    80002cf8:	00860613          	addi	a2,a2,8
    80002cfc:	00868693          	addi	a3,a3,8
    80002d00:	f7c76ce3          	bltu	a4,t3,80002c78 <mm_cb+0x1650>
    80002d04:	0168b027          	fsd	fs6,0(a7)
    80002d08:	0158b427          	fsd	fs5,8(a7)
    80002d0c:	0148b827          	fsd	fs4,16(a7)
    80002d10:	0138bc27          	fsd	fs3,24(a7)
    80002d14:	02b8b027          	fsd	fa1,32(a7)
    80002d18:	01283027          	fsd	fs2,0(a6)
    80002d1c:	00983427          	fsd	fs1,8(a6)
    80002d20:	00883827          	fsd	fs0,16(a6)
    80002d24:	01f83c27          	fsd	ft11,24(a6)
    80002d28:	02c83027          	fsd	fa2,32(a6)
    80002d2c:	01e53027          	fsd	ft10,0(a0)
    80002d30:	01d53427          	fsd	ft9,8(a0)
    80002d34:	01c53827          	fsd	ft8,16(a0)
    80002d38:	00353c27          	fsd	ft3,24(a0)
    80002d3c:	02253027          	fsd	ft2,32(a0)
    80002d40:	00133027          	fsd	ft1,0(t1)
    80002d44:	00033427          	fsd	ft0,8(t1)
    80002d48:	00a33827          	fsd	fa0,16(t1)
    80002d4c:	00e33c27          	fsd	fa4,24(t1)
    80002d50:	02f33027          	fsd	fa5,32(t1)
    80002d54:	005f0f13          	addi	t5,t5,5
    80002d58:	02888893          	addi	a7,a7,40
    80002d5c:	02880813          	addi	a6,a6,40
    80002d60:	02850513          	addi	a0,a0,40
    80002d64:	02830313          	addi	t1,t1,40
    80002d68:	028e8e93          	addi	t4,t4,40
    80002d6c:	b53f66e3          	bltu	t5,s3,800028b8 <mm_cb+0x1290>
    80002d70:	ee043783          	ld	a5,-288(s0)
    80002d74:	f2043803          	ld	a6,-224(s0)
    80002d78:	f2843703          	ld	a4,-216(s0)
    80002d7c:	00fb88b3          	add	a7,s7,a5
    80002d80:	00043783          	ld	a5,0(s0)
    80002d84:	ed843603          	ld	a2,-296(s0)
    80002d88:	e7843583          	ld	a1,-392(s0)
    80002d8c:	00f13023          	sd	a5,0(sp)
    80002d90:	eb843783          	ld	a5,-328(s0)
    80002d94:	00048693          	mv	a3,s1
    80002d98:	00400513          	li	a0,4
    80002d9c:	00ac8cb3          	add	s9,s9,a0
    80002da0:	ebcfe0ef          	jal	8000145c <mm_naive>
    80002da4:	e9043783          	ld	a5,-368(s0)
    80002da8:	00f484b3          	add	s1,s1,a5
    80002dac:	e9843783          	ld	a5,-360(s0)
    80002db0:	00fb8bb3          	add	s7,s7,a5
    80002db4:	ee843783          	ld	a5,-280(s0)
    80002db8:	acfceae3          	bltu	s9,a5,8000288c <mm_cb+0x1264>
    80002dbc:	ed843283          	ld	t0,-296(s0)
    80002dc0:	00043703          	ld	a4,0(s0)
    80002dc4:	f1843a03          	ld	s4,-232(s0)
    80002dc8:	ea043483          	ld	s1,-352(s0)
    80002dcc:	ed043303          	ld	t1,-304(s0)
    80002dd0:	e4843683          	ld	a3,-440(s0)
    80002dd4:	00e13023          	sd	a4,0(sp)
    80002dd8:	e6043883          	ld	a7,-416(s0)
    80002ddc:	f2843703          	ld	a4,-216(s0)
    80002de0:	f2043803          	ld	a6,-224(s0)
    80002de4:	e8043583          	ld	a1,-384(s0)
    80002de8:	e5043503          	ld	a0,-432(s0)
    80002dec:	01830313          	addi	t1,t1,24
    80002df0:	000a0793          	mv	a5,s4
    80002df4:	00d486b3          	add	a3,s1,a3
    80002df8:	00028613          	mv	a2,t0
    80002dfc:	00030913          	mv	s2,t1
    80002e00:	ec643823          	sd	t1,-304(s0)
    80002e04:	e58fe0ef          	jal	8000145c <mm_naive>
    80002e08:	e3043703          	ld	a4,-464(s0)
    80002e0c:	00ea07b3          	add	a5,s4,a4
    80002e10:	f0f43c23          	sd	a5,-232(s0)
    80002e14:	0c048793          	addi	a5,s1,192
    80002e18:	eaf43023          	sd	a5,-352(s0)
    80002e1c:	f0843783          	ld	a5,-248(s0)
    80002e20:	9ef96ce3          	bltu	s2,a5,80002818 <mm_cb+0x11f0>
    80002e24:	000c0293          	mv	t0,s8
    80002e28:	ec043703          	ld	a4,-320(s0)
    80002e2c:	ec843783          	ld	a5,-312(s0)
    80002e30:	0c870713          	addi	a4,a4,200
    80002e34:	ece43023          	sd	a4,-320(s0)
    80002e38:	ef043703          	ld	a4,-272(s0)
    80002e3c:	01978793          	addi	a5,a5,25
    80002e40:	ecf43423          	sd	a5,-312(s0)
    80002e44:	0c870713          	addi	a4,a4,200
    80002e48:	eee43823          	sd	a4,-272(s0)
    80002e4c:	eb043703          	ld	a4,-336(s0)
    80002e50:	94e7e8e3          	bltu	a5,a4,800027a0 <mm_cb+0x1178>
    80002e54:	00043783          	ld	a5,0(s0)
    80002e58:	00179793          	slli	a5,a5,0x1
    80002e5c:	e0f43423          	sd	a5,-504(s0)
    80002e60:	00043783          	ld	a5,0(s0)
    80002e64:	00379d13          	slli	s10,a5,0x3
    80002e68:	f0043783          	ld	a5,-256(s0)
    80002e6c:	0e078863          	beqz	a5,80002f5c <mm_cb+0x1934>
    80002e70:	e0843783          	ld	a5,-504(s0)
    80002e74:	00043703          	ld	a4,0(s0)
    80002e78:	e8843f03          	ld	t5,-376(s0)
    80002e7c:	ef843283          	ld	t0,-264(s0)
    80002e80:	00e78fb3          	add	t6,a5,a4
    80002e84:	00001337          	lui	t1,0x1
    80002e88:	006f9f93          	slli	t6,t6,0x6
    80002e8c:	00000e13          	li	t3,0
    80002e90:	01800513          	li	a0,24
    80002e94:	01900393          	li	t2,25
    80002e98:	2c030313          	addi	t1,t1,704 # 12c0 <_tbss_end+0x123c>
    80002e9c:	0a028863          	beqz	t0,80002f4c <mm_cb+0x1924>
    80002ea0:	02ae5833          	divu	a6,t3,a0
    80002ea4:	f1043783          	ld	a5,-240(s0)
    80002ea8:	000f0e93          	mv	t4,t5
    80002eac:	00000893          	li	a7,0
    80002eb0:	02f80833          	mul	a6,a6,a5
    80002eb4:	ea843783          	ld	a5,-344(s0)
    80002eb8:	000e8593          	mv	a1,t4
    80002ebc:	0278d633          	divu	a2,a7,t2
    80002ec0:	01060633          	add	a2,a2,a6
    80002ec4:	02660633          	mul	a2,a2,t1
    80002ec8:	00c78633          	add	a2,a5,a2
    80002ecc:	006604b3          	add	s1,a2,t1
    80002ed0:	00058713          	mv	a4,a1
    80002ed4:	00060793          	mv	a5,a2
    80002ed8:	00000693          	li	a3,0
    80002edc:	0007b087          	fld	ft1,0(a5)
    80002ee0:	0087b007          	fld	ft0,8(a5)
    80002ee4:	0107b507          	fld	fa0,16(a5)
    80002ee8:	0187b587          	fld	fa1,24(a5)
    80002eec:	0207b607          	fld	fa2,32(a5)
    80002ef0:	0287b687          	fld	fa3,40(a5)
    80002ef4:	0307b707          	fld	fa4,48(a5)
    80002ef8:	0387b787          	fld	fa5,56(a5)
    80002efc:	00868693          	addi	a3,a3,8
    80002f00:	00173027          	fsd	ft1,0(a4)
    80002f04:	00073427          	fsd	ft0,8(a4)
    80002f08:	00a73827          	fsd	fa0,16(a4)
    80002f0c:	00b73c27          	fsd	fa1,24(a4)
    80002f10:	02c73027          	fsd	fa2,32(a4)
    80002f14:	02d73427          	fsd	fa3,40(a4)
    80002f18:	02e73827          	fsd	fa4,48(a4)
    80002f1c:	02f73c27          	fsd	fa5,56(a4)
    80002f20:	04078793          	addi	a5,a5,64
    80002f24:	04070713          	addi	a4,a4,64
    80002f28:	faa69ae3          	bne	a3,a0,80002edc <mm_cb+0x18b4>
    80002f2c:	0c063787          	fld	fa5,192(a2)
    80002f30:	0c860613          	addi	a2,a2,200
    80002f34:	0cf5b027          	fsd	fa5,192(a1)
    80002f38:	01a585b3          	add	a1,a1,s10
    80002f3c:	f8c49ae3          	bne	s1,a2,80002ed0 <mm_cb+0x18a8>
    80002f40:	01988893          	addi	a7,a7,25
    80002f44:	0c8e8e93          	addi	t4,t4,200
    80002f48:	f658e6e3          	bltu	a7,t0,80002eb4 <mm_cb+0x188c>
    80002f4c:	f0043783          	ld	a5,-256(s0)
    80002f50:	018e0e13          	addi	t3,t3,24
    80002f54:	01ff0f33          	add	t5,t5,t6
    80002f58:	f4fe62e3          	bltu	t3,a5,80002e9c <mm_cb+0x1874>
    80002f5c:	d7040113          	addi	sp,s0,-656
    80002f60:	28813083          	ld	ra,648(sp)
    80002f64:	28013403          	ld	s0,640(sp)
    80002f68:	27813483          	ld	s1,632(sp)
    80002f6c:	27013903          	ld	s2,624(sp)
    80002f70:	26813983          	ld	s3,616(sp)
    80002f74:	26013a03          	ld	s4,608(sp)
    80002f78:	25813a83          	ld	s5,600(sp)
    80002f7c:	25013b03          	ld	s6,592(sp)
    80002f80:	24813b83          	ld	s7,584(sp)
    80002f84:	24013c03          	ld	s8,576(sp)
    80002f88:	23813c83          	ld	s9,568(sp)
    80002f8c:	23013d03          	ld	s10,560(sp)
    80002f90:	22813d83          	ld	s11,552(sp)
    80002f94:	21813407          	fld	fs0,536(sp)
    80002f98:	21013487          	fld	fs1,528(sp)
    80002f9c:	20813907          	fld	fs2,520(sp)
    80002fa0:	20013987          	fld	fs3,512(sp)
    80002fa4:	1f813a07          	fld	fs4,504(sp)
    80002fa8:	1f013a87          	fld	fs5,496(sp)
    80002fac:	1e813b07          	fld	fs6,488(sp)
    80002fb0:	1e013b87          	fld	fs7,480(sp)
    80002fb4:	1d813c07          	fld	fs8,472(sp)
    80002fb8:	1d013c87          	fld	fs9,464(sp)
    80002fbc:	1c813d07          	fld	fs10,456(sp)
    80002fc0:	1c013d87          	fld	fs11,448(sp)
    80002fc4:	29010113          	addi	sp,sp,656
    80002fc8:	00008067          	ret
    80002fcc:	f0843783          	ld	a5,-248(s0)
    80002fd0:	ec078063          	beqz	a5,80002690 <mm_cb+0x1068>
    80002fd4:	e8043783          	ld	a5,-384(s0)
    80002fd8:	ec043703          	ld	a4,-320(s0)
    80002fdc:	dc843383          	ld	t2,-568(s0)
    80002fe0:	db843b03          	ld	s6,-584(s0)
    80002fe4:	00e787b3          	add	a5,a5,a4
    80002fe8:	eef43023          	sd	a5,-288(s0)
    80002fec:	e9843783          	ld	a5,-360(s0)
    80002ff0:	ec043c23          	sd	zero,-296(s0)
    80002ff4:	00038d93          	mv	s11,t2
    80002ff8:	ecf43823          	sd	a5,-304(s0)
    80002ffc:	f0843783          	ld	a5,-248(s0)
    80003000:	ed843703          	ld	a4,-296(s0)
    80003004:	40e782b3          	sub	t0,a5,a4
    80003008:	01800793          	li	a5,24
    8000300c:	0057f463          	bleu	t0,a5,80003014 <mm_cb+0x19ec>
    80003010:	00078293          	mv	t0,a5
    80003014:	00600793          	li	a5,6
    80003018:	02f2d933          	divu	s2,t0,a5
    8000301c:	e6843783          	ld	a5,-408(s0)
    80003020:	ec043c03          	ld	s8,-320(s0)
    80003024:	ed043483          	ld	s1,-304(s0)
    80003028:	00fd87b3          	add	a5,s11,a5
    8000302c:	eaf43c23          	sd	a5,-328(s0)
    80003030:	00329793          	slli	a5,t0,0x3
    80003034:	e2f43c23          	sd	a5,-456(s0)
    80003038:	00600393          	li	t2,6
    8000303c:	ebb43023          	sd	s11,-352(s0)
    80003040:	00038d93          	mv	s11,t2
    80003044:	00191793          	slli	a5,s2,0x1
    80003048:	012787b3          	add	a5,a5,s2
    8000304c:	00479793          	slli	a5,a5,0x4
    80003050:	00fc89b3          	add	s3,s9,a5
    80003054:	def43823          	sd	a5,-528(s0)
    80003058:	db043783          	ld	a5,-592(s0)
    8000305c:	01998a33          	add	s4,s3,s9
    80003060:	019a0ab3          	add	s5,s4,s9
    80003064:	03278933          	mul	s2,a5,s2
    80003068:	4c0b0c63          	beqz	s6,80003540 <mm_cb+0x1f18>
    8000306c:	e3843703          	ld	a4,-456(s0)
    80003070:	df843783          	ld	a5,-520(s0)
    80003074:	ea043e83          	ld	t4,-352(s0)
    80003078:	00e48e33          	add	t3,s1,a4
    8000307c:	df043703          	ld	a4,-528(s0)
    80003080:	01878833          	add	a6,a5,s8
    80003084:	01078533          	add	a0,a5,a6
    80003088:	00e485b3          	add	a1,s1,a4
    8000308c:	00a78333          	add	t1,a5,a0
    80003090:	000c0893          	mv	a7,s8
    80003094:	00000f13          	li	t5,0
    80003098:	0008bb07          	fld	fs6,0(a7)
    8000309c:	0088ba87          	fld	fs5,8(a7)
    800030a0:	0108ba07          	fld	fs4,16(a7)
    800030a4:	0188b987          	fld	fs3,24(a7)
    800030a8:	0208b587          	fld	fa1,32(a7)
    800030ac:	00083907          	fld	fs2,0(a6)
    800030b0:	00883487          	fld	fs1,8(a6)
    800030b4:	01083407          	fld	fs0,16(a6)
    800030b8:	01883f87          	fld	ft11,24(a6)
    800030bc:	02083607          	fld	fa2,32(a6)
    800030c0:	00053f07          	fld	ft10,0(a0)
    800030c4:	00853e87          	fld	ft9,8(a0)
    800030c8:	01053e07          	fld	ft8,16(a0)
    800030cc:	01853107          	fld	ft2,24(a0)
    800030d0:	02053687          	fld	fa3,32(a0)
    800030d4:	00033087          	fld	ft1,0(t1)
    800030d8:	00833007          	fld	ft0,8(t1)
    800030dc:	01033507          	fld	fa0,16(t1)
    800030e0:	01833707          	fld	fa4,24(t1)
    800030e4:	02033787          	fld	fa5,32(t1)
    800030e8:	34b4f463          	bleu	a1,s1,80003430 <mm_cb+0x1e08>
    800030ec:	019486b3          	add	a3,s1,s9
    800030f0:	22210bd3          	fmv.d	fs7,ft2
    800030f4:	22f78853          	fmv.d	fa6,fa5
    800030f8:	23290153          	fmv.d	ft2,fs2
    800030fc:	23ef07d3          	fmv.d	fa5,ft10
    80003100:	22a503d3          	fmv.d	ft7,fa0
    80003104:	22e70353          	fmv.d	ft6,fa4
    80003108:	236b0f53          	fmv.d	ft10,fs6
    8000310c:	000e0393          	mv	t2,t3
    80003110:	01968733          	add	a4,a3,s9
    80003114:	000f0f93          	mv	t6,t5
    80003118:	01970633          	add	a2,a4,s9
    8000311c:	00048793          	mv	a5,s1
    80003120:	000e8e13          	mv	t3,t4
    80003124:	00038f13          	mv	t5,t2
    80003128:	0007bd07          	fld	fs10,0(a5)
    8000312c:	0006bc87          	fld	fs9,0(a3)
    80003130:	00073c07          	fld	fs8,0(a4)
    80003134:	00063207          	fld	ft4,0(a2)
    80003138:	000e3907          	fld	fs2,0(t3)
    8000313c:	010e3507          	fld	fa0,16(t3)
    80003140:	018e3707          	fld	fa4,24(t3)
    80003144:	020e3287          	fld	ft5,32(t3)
    80003148:	008e3887          	fld	fa7,8(t3)
    8000314c:	a2ad71c3          	fmadd.d	ft3,fs10,fa0,fs4
    80003150:	fb977fc3          	fmadd.d	ft11,fa4,fs9,ft11
    80003154:	4b98f4c3          	fmadd.d	fs1,fa7,fs9,fs1
    80003158:	8242f843          	fmadd.d	fa6,ft5,ft4,fa6
    8000315c:	f32d7f43          	fmadd.d	ft10,fs10,fs2,ft10
    80003160:	ab1d7ac3          	fmadd.d	fs5,fs10,fa7,fs5
    80003164:	9aed79c3          	fmadd.d	fs3,fs10,fa4,fs3
    80003168:	5a5d75c3          	fmadd.d	fa1,fs10,ft5,fa1
    8000316c:	13997143          	fmadd.d	ft2,fs2,fs9,ft2
    80003170:	43957443          	fmadd.d	fs0,fa0,fs9,fs0
    80003174:	6392f643          	fmadd.d	fa2,ft5,fs9,fa2
    80003178:	7b8977c3          	fmadd.d	fa5,fs2,fs8,fa5
    8000317c:	eb88fec3          	fmadd.d	ft9,fa7,fs8,ft9
    80003180:	e3857e43          	fmadd.d	ft8,fa0,fs8,ft8
    80003184:	bb877bc3          	fmadd.d	fs7,fa4,fs8,fs7
    80003188:	6b82f6c3          	fmadd.d	fa3,ft5,fs8,fa3
    8000318c:	0a4970c3          	fmadd.d	ft1,fs2,ft4,ft1
    80003190:	0248f8c3          	fmadd.d	fa7,fa7,ft4,ft0
    80003194:	3a4573c3          	fmadd.d	ft7,fa0,ft4,ft7
    80003198:	32477343          	fmadd.d	ft6,fa4,ft4,ft6
    8000319c:	01ae0e33          	add	t3,t3,s10
    800031a0:	0087b707          	fld	fa4,8(a5)
    800031a4:	0086bb07          	fld	fs6,8(a3)
    800031a8:	00873a07          	fld	fs4,8(a4)
    800031ac:	00863287          	fld	ft5,8(a2)
    800031b0:	000e3c87          	fld	fs9,0(t3)
    800031b4:	008e3c07          	fld	fs8,8(t3)
    800031b8:	010e3207          	fld	ft4,16(t3)
    800031bc:	018e3907          	fld	fs2,24(t3)
    800031c0:	020e3d07          	fld	fs10,32(t3)
    800031c4:	4b6c7043          	fmadd.d	ft0,fs8,fs6,fs1
    800031c8:	43627543          	fmadd.d	fa0,ft4,fs6,fs0
    800031cc:	f3977f43          	fmadd.d	ft10,fa4,fs9,ft10
    800031d0:	ab877ac3          	fmadd.d	fs5,fa4,fs8,fs5
    800031d4:	1a4771c3          	fmadd.d	ft3,fa4,ft4,ft3
    800031d8:	9b2779c3          	fmadd.d	fs3,fa4,fs2,fs3
    800031dc:	5ba775c3          	fmadd.d	fa1,fa4,fs10,fa1
    800031e0:	136cf143          	fmadd.d	ft2,fs9,fs6,ft2
    800031e4:	fb697743          	fmadd.d	fa4,fs2,fs6,ft11
    800031e8:	636d7643          	fmadd.d	fa2,fs10,fs6,fa2
    800031ec:	7b4cf7c3          	fmadd.d	fa5,fs9,fs4,fa5
    800031f0:	eb4c7ec3          	fmadd.d	ft9,fs8,fs4,ft9
    800031f4:	e3427e43          	fmadd.d	ft8,ft4,fs4,ft8
    800031f8:	bb497bc3          	fmadd.d	fs7,fs2,fs4,fs7
    800031fc:	6b4d76c3          	fmadd.d	fa3,fs10,fs4,fa3
    80003200:	0a5cf0c3          	fmadd.d	ft1,fs9,ft5,ft1
    80003204:	8a5c78c3          	fmadd.d	fa7,fs8,ft5,fa7
    80003208:	3a5273c3          	fmadd.d	ft7,ft4,ft5,ft7
    8000320c:	32597343          	fmadd.d	ft6,fs2,ft5,ft6
    80003210:	825d72c3          	fmadd.d	ft5,fs10,ft5,fa6
    80003214:	01ae0e33          	add	t3,t3,s10
    80003218:	0107b487          	fld	fs1,16(a5)
    8000321c:	0106b407          	fld	fs0,16(a3)
    80003220:	01073207          	fld	ft4,16(a4)
    80003224:	01063807          	fld	fa6,16(a2)
    80003228:	000e3c87          	fld	fs9,0(t3)
    8000322c:	008e3c07          	fld	fs8,8(t3)
    80003230:	010e3b07          	fld	fs6,16(t3)
    80003234:	018e3907          	fld	fs2,24(t3)
    80003238:	020e3f87          	fld	ft11,32(t3)
    8000323c:	0b0cf0c3          	fmadd.d	ft1,fs9,fa6,ft1
    80003240:	8b0c78c3          	fmadd.d	fa7,fs8,fa6,fa7
    80003244:	6a4ff6c3          	fmadd.d	fa3,ft11,ft4,fa3
    80003248:	3b0b73c3          	fmadd.d	ft7,fs6,fa6,ft7
    8000324c:	33097343          	fmadd.d	ft6,fs2,fa6,ft6
    80003250:	f394ff43          	fmadd.d	ft10,fs1,fs9,ft10
    80003254:	ab84fac3          	fmadd.d	fs5,fs1,fs8,fs5
    80003258:	1b64f1c3          	fmadd.d	ft3,fs1,fs6,ft3
    8000325c:	9b24f9c3          	fmadd.d	fs3,fs1,fs2,fs3
    80003260:	5bf4f5c3          	fmadd.d	fa1,fs1,ft11,fa1
    80003264:	128cf143          	fmadd.d	ft2,fs9,fs0,ft2
    80003268:	028c7043          	fmadd.d	ft0,fs8,fs0,ft0
    8000326c:	528b7543          	fmadd.d	fa0,fs6,fs0,fa0
    80003270:	72897743          	fmadd.d	fa4,fs2,fs0,fa4
    80003274:	628ff643          	fmadd.d	fa2,ft11,fs0,fa2
    80003278:	7a4cf7c3          	fmadd.d	fa5,fs9,ft4,fa5
    8000327c:	ea4c7ec3          	fmadd.d	ft9,fs8,ft4,ft9
    80003280:	e24b7e43          	fmadd.d	ft8,fs6,ft4,ft8
    80003284:	ba497bc3          	fmadd.d	fs7,fs2,ft4,fs7
    80003288:	2b0ff2c3          	fmadd.d	ft5,ft11,fa6,ft5
    8000328c:	01ae0e33          	add	t3,t3,s10
    80003290:	0187b487          	fld	fs1,24(a5)
    80003294:	000e3c87          	fld	fs9,0(t3)
    80003298:	008e3c07          	fld	fs8,8(t3)
    8000329c:	010e3b07          	fld	fs6,16(t3)
    800032a0:	018e3907          	fld	fs2,24(t3)
    800032a4:	020e3f87          	fld	ft11,32(t3)
    800032a8:	0186b407          	fld	fs0,24(a3)
    800032ac:	01863807          	fld	fa6,24(a2)
    800032b0:	01873207          	fld	ft4,24(a4)
    800032b4:	1b64f1c3          	fmadd.d	ft3,fs1,fs6,ft3
    800032b8:	028c7043          	fmadd.d	ft0,fs8,fs0,ft0
    800032bc:	72897743          	fmadd.d	fa4,fs2,fs0,fa4
    800032c0:	2b0ff2c3          	fmadd.d	ft5,ft11,fa6,ft5
    800032c4:	f394ff43          	fmadd.d	ft10,fs1,fs9,ft10
    800032c8:	ab84fac3          	fmadd.d	fs5,fs1,fs8,fs5
    800032cc:	9b24f9c3          	fmadd.d	fs3,fs1,fs2,fs3
    800032d0:	5bf4f5c3          	fmadd.d	fa1,fs1,ft11,fa1
    800032d4:	128cf143          	fmadd.d	ft2,fs9,fs0,ft2
    800032d8:	528b7543          	fmadd.d	fa0,fs6,fs0,fa0
    800032dc:	628ff643          	fmadd.d	fa2,ft11,fs0,fa2
    800032e0:	7a4cf7c3          	fmadd.d	fa5,fs9,ft4,fa5
    800032e4:	ea4c7ec3          	fmadd.d	ft9,fs8,ft4,ft9
    800032e8:	e24b7e43          	fmadd.d	ft8,fs6,ft4,ft8
    800032ec:	8b0c7c43          	fmadd.d	fs8,fs8,fa6,fa7
    800032f0:	ba497bc3          	fmadd.d	fs7,fs2,ft4,fs7
    800032f4:	0b0cfcc3          	fmadd.d	fs9,fs9,fa6,ft1
    800032f8:	33097943          	fmadd.d	fs2,fs2,fa6,ft6
    800032fc:	6a4ff243          	fmadd.d	ft4,ft11,ft4,fa3
    80003300:	3b0b7b43          	fmadd.d	fs6,fs6,fa6,ft7
    80003304:	01ae0e33          	add	t3,t3,s10
    80003308:	0207bf87          	fld	ft11,32(a5)
    8000330c:	02073687          	fld	fa3,32(a4)
    80003310:	0206bd87          	fld	fs11,32(a3)
    80003314:	02063807          	fld	fa6,32(a2)
    80003318:	000e3087          	fld	ft1,0(t3)
    8000331c:	008e3887          	fld	fa7,8(t3)
    80003320:	010e3387          	fld	ft7,16(t3)
    80003324:	018e3307          	fld	ft6,24(t3)
    80003328:	020e3d07          	fld	fs10,32(t3)
    8000332c:	1a7ffa43          	fmadd.d	fs4,ft11,ft7,ft3
    80003330:	f21fff43          	fmadd.d	ft10,ft11,ft1,ft10
    80003334:	ab1ffac3          	fmadd.d	fs5,ft11,fa7,fs5
    80003338:	9a6ff9c3          	fmadd.d	fs3,ft11,ft6,fs3
    8000333c:	03b8f4c3          	fmadd.d	fs1,fa7,fs11,ft0
    80003340:	53b3f443          	fmadd.d	fs0,ft7,fs11,fa0
    80003344:	7ad0f7c3          	fmadd.d	fa5,ft1,fa3,fa5
    80003348:	ead8fec3          	fmadd.d	ft9,fa7,fa3,ft9
    8000334c:	e2d3fe43          	fmadd.d	ft8,ft7,fa3,ft8
    80003350:	bad37bc3          	fmadd.d	fs7,ft6,fa3,fs7
    80003354:	cb00fcc3          	fmadd.d	fs9,ft1,fa6,fs9
    80003358:	c308f8c3          	fmadd.d	fa7,fa7,fa6,fs8
    8000335c:	5baff5c3          	fmadd.d	fa1,ft11,fs10,fa1
    80003360:	13b0f143          	fmadd.d	ft2,ft1,fs11,ft2
    80003364:	73b37fc3          	fmadd.d	ft11,ft6,fs11,fa4
    80003368:	22dd7243          	fmadd.d	ft4,fs10,fa3,ft4
    8000336c:	93037343          	fmadd.d	ft6,ft6,fa6,fs2
    80003370:	b303f3c3          	fmadd.d	ft7,ft7,fa6,fs6
    80003374:	63bd7643          	fmadd.d	fa2,fs10,fs11,fa2
    80003378:	2b0d7843          	fmadd.d	fa6,fs10,fa6,ft5
    8000337c:	01ae0e33          	add	t3,t3,s10
    80003380:	0287bc07          	fld	fs8,40(a5)
    80003384:	0286b907          	fld	fs2,40(a3)
    80003388:	02873687          	fld	fa3,40(a4)
    8000338c:	02863187          	fld	ft3,40(a2)
    80003390:	000e3087          	fld	ft1,0(t3)
    80003394:	008e3007          	fld	ft0,8(t3)
    80003398:	010e3507          	fld	fa0,16(t3)
    8000339c:	018e3707          	fld	fa4,24(t3)
    800033a0:	020e3287          	fld	ft5,32(t3)
    800033a4:	03078793          	addi	a5,a5,48
    800033a8:	7ad0f7c3          	fmadd.d	fa5,ft1,fa3,fa5
    800033ac:	ead07ec3          	fmadd.d	ft9,ft0,fa3,ft9
    800033b0:	f21c7f43          	fmadd.d	ft10,fs8,ft1,ft10
    800033b4:	aa0c7ac3          	fmadd.d	fs5,fs8,ft0,fs5
    800033b8:	1320f143          	fmadd.d	ft2,ft1,fs2,ft2
    800033bc:	4b2074c3          	fmadd.d	fs1,ft0,fs2,fs1
    800033c0:	e2d57e43          	fmadd.d	ft8,fa0,fa3,ft8
    800033c4:	bad77bc3          	fmadd.d	fs7,fa4,fa3,fs7
    800033c8:	a2ac7a43          	fmadd.d	fs4,fs8,fa0,fs4
    800033cc:	9aec79c3          	fmadd.d	fs3,fs8,fa4,fs3
    800033d0:	5a5c75c3          	fmadd.d	fa1,fs8,ft5,fa1
    800033d4:	43257443          	fmadd.d	fs0,fa0,fs2,fs0
    800033d8:	fb277fc3          	fmadd.d	ft11,fa4,fs2,ft11
    800033dc:	6322f643          	fmadd.d	fa2,ft5,fs2,fa2
    800033e0:	22d2f6c3          	fmadd.d	fa3,ft5,fa3,ft4
    800033e4:	ca30f0c3          	fmadd.d	ft1,ft1,ft3,fs9
    800033e8:	8a307043          	fmadd.d	ft0,ft0,ft3,fa7
    800033ec:	3a3573c3          	fmadd.d	ft7,fa0,ft3,ft7
    800033f0:	32377343          	fmadd.d	ft6,fa4,ft3,ft6
    800033f4:	8232f843          	fmadd.d	fa6,ft5,ft3,fa6
    800033f8:	01ae0e33          	add	t3,t3,s10
    800033fc:	03068693          	addi	a3,a3,48
    80003400:	03070713          	addi	a4,a4,48
    80003404:	03060613          	addi	a2,a2,48
    80003408:	d2b7e0e3          	bltu	a5,a1,80003128 <mm_cb+0x1b00>
    8000340c:	23ef0b53          	fmv.d	fs6,ft10
    80003410:	22210953          	fmv.d	fs2,ft2
    80003414:	22f78f53          	fmv.d	ft10,fa5
    80003418:	237b8153          	fmv.d	ft2,fs7
    8000341c:	22738553          	fmv.d	fa0,ft7
    80003420:	22630753          	fmv.d	fa4,ft6
    80003424:	230807d3          	fmv.d	fa5,fa6
    80003428:	000f0e13          	mv	t3,t5
    8000342c:	000f8f13          	mv	t5,t6
    80003430:	012e87b3          	add	a5,t4,s2
    80003434:	0bc5f063          	bleu	t3,a1,800034d4 <mm_cb+0x1eac>
    80003438:	00998fb3          	add	t6,s3,s1
    8000343c:	009a0633          	add	a2,s4,s1
    80003440:	009a86b3          	add	a3,s5,s1
    80003444:	00058713          	mv	a4,a1
    80003448:	00073307          	fld	ft6,0(a4)
    8000344c:	000fb287          	fld	ft5,0(t6)
    80003450:	00063207          	fld	ft4,0(a2)
    80003454:	0006b187          	fld	ft3,0(a3)
    80003458:	0007bc07          	fld	fs8,0(a5)
    8000345c:	0087bb87          	fld	fs7,8(a5)
    80003460:	0107b887          	fld	fa7,16(a5)
    80003464:	0187b807          	fld	fa6,24(a5)
    80003468:	0207b387          	fld	ft7,32(a5)
    8000346c:	00870713          	addi	a4,a4,8
    80003470:	b3837b43          	fmadd.d	fs6,ft6,fs8,fs6
    80003474:	ab737ac3          	fmadd.d	fs5,ft6,fs7,fs5
    80003478:	a3137a43          	fmadd.d	fs4,ft6,fa7,fs4
    8000347c:	9b0379c3          	fmadd.d	fs3,ft6,fa6,fs3
    80003480:	5a7375c3          	fmadd.d	fa1,ft6,ft7,fa1
    80003484:	925c7943          	fmadd.d	fs2,fs8,ft5,fs2
    80003488:	4a5bf4c3          	fmadd.d	fs1,fs7,ft5,fs1
    8000348c:	4258f443          	fmadd.d	fs0,fa7,ft5,fs0
    80003490:	fa587fc3          	fmadd.d	ft11,fa6,ft5,ft11
    80003494:	6253f643          	fmadd.d	fa2,ft7,ft5,fa2
    80003498:	f24c7f43          	fmadd.d	ft10,fs8,ft4,ft10
    8000349c:	ea4bfec3          	fmadd.d	ft9,fs7,ft4,ft9
    800034a0:	e248fe43          	fmadd.d	ft8,fa7,ft4,ft8
    800034a4:	12487143          	fmadd.d	ft2,fa6,ft4,ft2
    800034a8:	6a43f6c3          	fmadd.d	fa3,ft7,ft4,fa3
    800034ac:	0a3c70c3          	fmadd.d	ft1,fs8,ft3,ft1
    800034b0:	023bf043          	fmadd.d	ft0,fs7,ft3,ft0
    800034b4:	5238f543          	fmadd.d	fa0,fa7,ft3,fa0
    800034b8:	72387743          	fmadd.d	fa4,fa6,ft3,fa4
    800034bc:	7a33f7c3          	fmadd.d	fa5,ft7,ft3,fa5
    800034c0:	01a787b3          	add	a5,a5,s10
    800034c4:	008f8f93          	addi	t6,t6,8
    800034c8:	00860613          	addi	a2,a2,8
    800034cc:	00868693          	addi	a3,a3,8
    800034d0:	f7c76ce3          	bltu	a4,t3,80003448 <mm_cb+0x1e20>
    800034d4:	0168b027          	fsd	fs6,0(a7)
    800034d8:	0158b427          	fsd	fs5,8(a7)
    800034dc:	0148b827          	fsd	fs4,16(a7)
    800034e0:	0138bc27          	fsd	fs3,24(a7)
    800034e4:	02b8b027          	fsd	fa1,32(a7)
    800034e8:	01283027          	fsd	fs2,0(a6)
    800034ec:	00983427          	fsd	fs1,8(a6)
    800034f0:	00883827          	fsd	fs0,16(a6)
    800034f4:	01f83c27          	fsd	ft11,24(a6)
    800034f8:	02c83027          	fsd	fa2,32(a6)
    800034fc:	01e53027          	fsd	ft10,0(a0)
    80003500:	01d53427          	fsd	ft9,8(a0)
    80003504:	01c53827          	fsd	ft8,16(a0)
    80003508:	00253c27          	fsd	ft2,24(a0)
    8000350c:	02d53027          	fsd	fa3,32(a0)
    80003510:	00133027          	fsd	ft1,0(t1)
    80003514:	00033427          	fsd	ft0,8(t1)
    80003518:	00a33827          	fsd	fa0,16(t1)
    8000351c:	00e33c27          	fsd	fa4,24(t1)
    80003520:	02f33027          	fsd	fa5,32(t1)
    80003524:	005f0f13          	addi	t5,t5,5
    80003528:	02888893          	addi	a7,a7,40
    8000352c:	02880813          	addi	a6,a6,40
    80003530:	02850513          	addi	a0,a0,40
    80003534:	02830313          	addi	t1,t1,40
    80003538:	028e8e93          	addi	t4,t4,40
    8000353c:	b56f6ee3          	bltu	t5,s6,80003098 <mm_cb+0x1a70>
    80003540:	e6843783          	ld	a5,-408(s0)
    80003544:	f2043803          	ld	a6,-224(s0)
    80003548:	f2843703          	ld	a4,-216(s0)
    8000354c:	00fc08b3          	add	a7,s8,a5
    80003550:	00043783          	ld	a5,0(s0)
    80003554:	e2043583          	ld	a1,-480(s0)
    80003558:	00048693          	mv	a3,s1
    8000355c:	00f13023          	sd	a5,0(sp)
    80003560:	eb843783          	ld	a5,-328(s0)
    80003564:	00028613          	mv	a2,t0
    80003568:	00400513          	li	a0,4
    8000356c:	ec543423          	sd	t0,-312(s0)
    80003570:	eedfd0ef          	jal	8000145c <mm_naive>
    80003574:	e9043783          	ld	a5,-368(s0)
    80003578:	fffd8d93          	addi	s11,s11,-1
    8000357c:	ec843283          	ld	t0,-312(s0)
    80003580:	00f484b3          	add	s1,s1,a5
    80003584:	e4043783          	ld	a5,-448(s0)
    80003588:	00fc0c33          	add	s8,s8,a5
    8000358c:	ac0d9ee3          	bnez	s11,80003068 <mm_cb+0x1a40>
    80003590:	00043703          	ld	a4,0(s0)
    80003594:	ea043d83          	ld	s11,-352(s0)
    80003598:	ed043483          	ld	s1,-304(s0)
    8000359c:	ed843303          	ld	t1,-296(s0)
    800035a0:	e1043683          	ld	a3,-496(s0)
    800035a4:	00e13023          	sd	a4,0(sp)
    800035a8:	ee043883          	ld	a7,-288(s0)
    800035ac:	f2043803          	ld	a6,-224(s0)
    800035b0:	f2843703          	ld	a4,-216(s0)
    800035b4:	dc043583          	ld	a1,-576(s0)
    800035b8:	000d8793          	mv	a5,s11
    800035bc:	01830313          	addi	t1,t1,24
    800035c0:	009686b3          	add	a3,a3,s1
    800035c4:	00028613          	mv	a2,t0
    800035c8:	00000513          	li	a0,0
    800035cc:	00030913          	mv	s2,t1
    800035d0:	ec643c23          	sd	t1,-296(s0)
    800035d4:	e89fd0ef          	jal	8000145c <mm_naive>
    800035d8:	da843783          	ld	a5,-600(s0)
    800035dc:	00fd8db3          	add	s11,s11,a5
    800035e0:	0c048793          	addi	a5,s1,192
    800035e4:	ecf43823          	sd	a5,-304(s0)
    800035e8:	f0843783          	ld	a5,-248(s0)
    800035ec:	a0f968e3          	bltu	s2,a5,80002ffc <mm_cb+0x19d4>
    800035f0:	8b0ff06f          	j	800026a0 <mm_cb+0x1078>

00000000800035f4 <mm>:
    800035f4:	ea010113          	addi	sp,sp,-352
    800035f8:	0fb13c23          	sd	s11,248(sp)
    800035fc:	14113c23          	sd	ra,344(sp)
    80003600:	14813823          	sd	s0,336(sp)
    80003604:	14913423          	sd	s1,328(sp)
    80003608:	15213023          	sd	s2,320(sp)
    8000360c:	13313c23          	sd	s3,312(sp)
    80003610:	13413823          	sd	s4,304(sp)
    80003614:	13513423          	sd	s5,296(sp)
    80003618:	13613023          	sd	s6,288(sp)
    8000361c:	11713c23          	sd	s7,280(sp)
    80003620:	11813823          	sd	s8,272(sp)
    80003624:	11913423          	sd	s9,264(sp)
    80003628:	11a13023          	sd	s10,256(sp)
    8000362c:	0e813427          	fsd	fs0,232(sp)
    80003630:	0e913027          	fsd	fs1,224(sp)
    80003634:	0d213c27          	fsd	fs2,216(sp)
    80003638:	0d313827          	fsd	fs3,208(sp)
    8000363c:	0d413427          	fsd	fs4,200(sp)
    80003640:	0d513027          	fsd	fs5,192(sp)
    80003644:	0b613c27          	fsd	fs6,184(sp)
    80003648:	0b713827          	fsd	fs7,176(sp)
    8000364c:	0b813427          	fsd	fs8,168(sp)
    80003650:	0ba13027          	fsd	fs10,160(sp)
    80003654:	09b13c27          	fsd	fs11,152(sp)
    80003658:	03000313          	li	t1,48
    8000365c:	16013d83          	ld	s11,352(sp)
    80003660:	68a36e63          	bltu	t1,a0,80003cfc <mm+0x708>
    80003664:	03200e13          	li	t3,50
    80003668:	68be6a63          	bltu	t3,a1,80003cfc <mm+0x708>
    8000366c:	68c36863          	bltu	t1,a2,80003cfc <mm+0x708>
    80003670:	06d13c23          	sd	a3,120(sp)
    80003674:	00500693          	li	a3,5
    80003678:	02f13023          	sd	a5,32(sp)
    8000367c:	02d5d7b3          	divu	a5,a1,a3
    80003680:	00e13823          	sd	a4,16(sp)
    80003684:	ffc57713          	andi	a4,a0,-4
    80003688:	09113023          	sd	a7,128(sp)
    8000368c:	03013423          	sd	a6,40(sp)
    80003690:	00c13c23          	sd	a2,24(sp)
    80003694:	06b13823          	sd	a1,112(sp)
    80003698:	08a13423          	sd	a0,136(sp)
    8000369c:	02e13823          	sd	a4,48(sp)
    800036a0:	00279993          	slli	s3,a5,0x2
    800036a4:	00f989b3          	add	s3,s3,a5
    800036a8:	6c070063          	beqz	a4,80003d68 <mm+0x774>
    800036ac:	01813603          	ld	a2,24(sp)
    800036b0:	00600793          	li	a5,6
    800036b4:	02813703          	ld	a4,40(sp)
    800036b8:	02f657b3          	divu	a5,a2,a5
    800036bc:	01013583          	ld	a1,16(sp)
    800036c0:	00171a13          	slli	s4,a4,0x1
    800036c4:	00ea0a33          	add	s4,s4,a4
    800036c8:	00371413          	slli	s0,a4,0x3
    800036cc:	00559713          	slli	a4,a1,0x5
    800036d0:	04e13023          	sd	a4,64(sp)
    800036d4:	005d9713          	slli	a4,s11,0x5
    800036d8:	02e13c23          	sd	a4,56(sp)
    800036dc:	00359913          	slli	s2,a1,0x3
    800036e0:	004a1a13          	slli	s4,s4,0x4
    800036e4:	02013803          	ld	a6,32(sp)
    800036e8:	00399513          	slli	a0,s3,0x3
    800036ec:	07813483          	ld	s1,120(sp)
    800036f0:	08013c03          	ld	s8,128(sp)
    800036f4:	04a13823          	sd	a0,80(sp)
    800036f8:	00361613          	slli	a2,a2,0x3
    800036fc:	00a80533          	add	a0,a6,a0
    80003700:	04a13c23          	sd	a0,88(sp)
    80003704:	003d9c93          	slli	s9,s11,0x3
    80003708:	06c13023          	sd	a2,96(sp)
    8000370c:	00000d13          	li	s10,0
    80003710:	00179713          	slli	a4,a5,0x1
    80003714:	00f70733          	add	a4,a4,a5
    80003718:	00471713          	slli	a4,a4,0x4
    8000371c:	00e90ab3          	add	s5,s2,a4
    80003720:	06e13423          	sd	a4,104(sp)
    80003724:	07013703          	ld	a4,112(sp)
    80003728:	02fa0a33          	mul	s4,s4,a5
    8000372c:	012a8b33          	add	s6,s5,s2
    80003730:	012b0bb3          	add	s7,s6,s2
    80003734:	02d77733          	remu	a4,a4,a3
    80003738:	04e13423          	sd	a4,72(sp)
    8000373c:	4c098a63          	beqz	s3,80003c10 <mm+0x61c>
    80003740:	06013783          	ld	a5,96(sp)
    80003744:	019c0833          	add	a6,s8,s9
    80003748:	02013e83          	ld	t4,32(sp)
    8000374c:	00f48e33          	add	t3,s1,a5
    80003750:	06813783          	ld	a5,104(sp)
    80003754:	01980533          	add	a0,a6,s9
    80003758:	01950333          	add	t1,a0,s9
    8000375c:	00f485b3          	add	a1,s1,a5
    80003760:	000c0893          	mv	a7,s8
    80003764:	00000f13          	li	t5,0
    80003768:	0008bb07          	fld	fs6,0(a7)
    8000376c:	0088ba87          	fld	fs5,8(a7)
    80003770:	0108ba07          	fld	fs4,16(a7)
    80003774:	0188b987          	fld	fs3,24(a7)
    80003778:	0208b587          	fld	fa1,32(a7)
    8000377c:	00083907          	fld	fs2,0(a6)
    80003780:	00883487          	fld	fs1,8(a6)
    80003784:	01083407          	fld	fs0,16(a6)
    80003788:	01883f87          	fld	ft11,24(a6)
    8000378c:	02083607          	fld	fa2,32(a6)
    80003790:	00053f07          	fld	ft10,0(a0)
    80003794:	00853e87          	fld	ft9,8(a0)
    80003798:	01053e07          	fld	ft8,16(a0)
    8000379c:	01853187          	fld	ft3,24(a0)
    800037a0:	02053107          	fld	ft2,32(a0)
    800037a4:	00033087          	fld	ft1,0(t1)
    800037a8:	00833007          	fld	ft0,8(t1)
    800037ac:	01033507          	fld	fa0,16(t1)
    800037b0:	01833707          	fld	fa4,24(t1)
    800037b4:	02033787          	fld	fa5,32(t1)
    800037b8:	34b4f463          	bleu	a1,s1,80003b00 <mm+0x50c>
    800037bc:	012486b3          	add	a3,s1,s2
    800037c0:	22f78253          	fmv.d	ft4,fa5
    800037c4:	234a08d3          	fmv.d	fa7,fs4
    800037c8:	23290853          	fmv.d	fa6,fs2
    800037cc:	229483d3          	fmv.d	ft7,fs1
    800037d0:	22840353          	fmv.d	ft6,fs0
    800037d4:	23ff82d3          	fmv.d	ft5,ft11
    800037d8:	23ef07d3          	fmv.d	fa5,ft10
    800037dc:	000e0293          	mv	t0,t3
    800037e0:	01268733          	add	a4,a3,s2
    800037e4:	000f0f93          	mv	t6,t5
    800037e8:	01270633          	add	a2,a4,s2
    800037ec:	00048793          	mv	a5,s1
    800037f0:	000e8e13          	mv	t3,t4
    800037f4:	00028f13          	mv	t5,t0
    800037f8:	0007bc07          	fld	fs8,0(a5)
    800037fc:	0006ba07          	fld	fs4,0(a3)
    80003800:	00063f07          	fld	ft10,0(a2)
    80003804:	00073687          	fld	fa3,0(a4)
    80003808:	000e3907          	fld	fs2,0(t3)
    8000380c:	008e3487          	fld	fs1,8(t3)
    80003810:	010e3407          	fld	fs0,16(t3)
    80003814:	018e3f87          	fld	ft11,24(t3)
    80003818:	020e3b87          	fld	fs7,32(t3)
    8000381c:	b32c7b43          	fmadd.d	fs6,fs8,fs2,fs6
    80003820:	aa9c7ac3          	fmadd.d	fs5,fs8,fs1,fs5
    80003824:	8a8c78c3          	fmadd.d	fa7,fs8,fs0,fa7
    80003828:	9bfc79c3          	fmadd.d	fs3,fs8,ft11,fs3
    8000382c:	5b7c75c3          	fmadd.d	fa1,fs8,fs7,fa1
    80003830:	83497843          	fmadd.d	fa6,fs2,fs4,fa6
    80003834:	3b44f3c3          	fmadd.d	ft7,fs1,fs4,ft7
    80003838:	33447343          	fmadd.d	ft6,fs0,fs4,ft6
    8000383c:	2b4ff2c3          	fmadd.d	ft5,ft11,fs4,ft5
    80003840:	634bf643          	fmadd.d	fa2,fs7,fs4,fa2
    80003844:	7ad977c3          	fmadd.d	fa5,fs2,fa3,fa5
    80003848:	ead4fec3          	fmadd.d	ft9,fs1,fa3,ft9
    8000384c:	e2d47e43          	fmadd.d	ft8,fs0,fa3,ft8
    80003850:	1adff1c3          	fmadd.d	ft3,ft11,fa3,ft3
    80003854:	0be970c3          	fmadd.d	ft1,fs2,ft10,ft1
    80003858:	12dbf6c3          	fmadd.d	fa3,fs7,fa3,ft2
    8000385c:	03e4f043          	fmadd.d	ft0,fs1,ft10,ft0
    80003860:	23ebfbc3          	fmadd.d	fs7,fs7,ft10,ft4
    80003864:	53e47543          	fmadd.d	fa0,fs0,ft10,fa0
    80003868:	73eff743          	fmadd.d	fa4,ft11,ft10,fa4
    8000386c:	008e0e33          	add	t3,t3,s0
    80003870:	0087ba07          	fld	fs4,8(a5)
    80003874:	0086b907          	fld	fs2,8(a3)
    80003878:	00873107          	fld	ft2,8(a4)
    8000387c:	00863207          	fld	ft4,8(a2)
    80003880:	000e3487          	fld	fs1,0(t3)
    80003884:	008e3407          	fld	fs0,8(t3)
    80003888:	010e3f87          	fld	ft11,16(t3)
    8000388c:	018e3f07          	fld	ft10,24(t3)
    80003890:	020e3c07          	fld	fs8,32(t3)
    80003894:	b29a7b43          	fmadd.d	fs6,fs4,fs1,fs6
    80003898:	aa8a7ac3          	fmadd.d	fs5,fs4,fs0,fs5
    8000389c:	8bfa78c3          	fmadd.d	fa7,fs4,ft11,fa7
    800038a0:	9bea79c3          	fmadd.d	fs3,fs4,ft10,fs3
    800038a4:	5b8a75c3          	fmadd.d	fa1,fs4,fs8,fa1
    800038a8:	8324f843          	fmadd.d	fa6,fs1,fs2,fa6
    800038ac:	3b2473c3          	fmadd.d	ft7,fs0,fs2,ft7
    800038b0:	332ff343          	fmadd.d	ft6,ft11,fs2,ft6
    800038b4:	2b2f72c3          	fmadd.d	ft5,ft10,fs2,ft5
    800038b8:	632c7643          	fmadd.d	fa2,fs8,fs2,fa2
    800038bc:	7a24f7c3          	fmadd.d	fa5,fs1,ft2,fa5
    800038c0:	ea247ec3          	fmadd.d	ft9,fs0,ft2,ft9
    800038c4:	e22ffe43          	fmadd.d	ft8,ft11,ft2,ft8
    800038c8:	1a2f71c3          	fmadd.d	ft3,ft10,ft2,ft3
    800038cc:	6a2c76c3          	fmadd.d	fa3,fs8,ft2,fa3
    800038d0:	0a44f0c3          	fmadd.d	ft1,fs1,ft4,ft1
    800038d4:	02447043          	fmadd.d	ft0,fs0,ft4,ft0
    800038d8:	524ff543          	fmadd.d	fa0,ft11,ft4,fa0
    800038dc:	724f7743          	fmadd.d	fa4,ft10,ft4,fa4
    800038e0:	ba4c7243          	fmadd.d	ft4,fs8,ft4,fs7
    800038e4:	008e0e33          	add	t3,t3,s0
    800038e8:	0107bc07          	fld	fs8,16(a5)
    800038ec:	0106ba07          	fld	fs4,16(a3)
    800038f0:	01073107          	fld	ft2,16(a4)
    800038f4:	01063b87          	fld	fs7,16(a2)
    800038f8:	000e3487          	fld	fs1,0(t3)
    800038fc:	008e3407          	fld	fs0,8(t3)
    80003900:	010e3f87          	fld	ft11,16(t3)
    80003904:	018e3f07          	fld	ft10,24(t3)
    80003908:	020e3907          	fld	fs2,32(t3)
    8000390c:	0b74f0c3          	fmadd.d	ft1,fs1,fs7,ft1
    80003910:	03747043          	fmadd.d	ft0,fs0,fs7,ft0
    80003914:	6a2976c3          	fmadd.d	fa3,fs2,ft2,fa3
    80003918:	537ff543          	fmadd.d	fa0,ft11,fs7,fa0
    8000391c:	737f7743          	fmadd.d	fa4,ft10,fs7,fa4
    80003920:	b29c7b43          	fmadd.d	fs6,fs8,fs1,fs6
    80003924:	aa8c7ac3          	fmadd.d	fs5,fs8,fs0,fs5
    80003928:	8bfc78c3          	fmadd.d	fa7,fs8,ft11,fa7
    8000392c:	9bec79c3          	fmadd.d	fs3,fs8,ft10,fs3
    80003930:	5b2c75c3          	fmadd.d	fa1,fs8,fs2,fa1
    80003934:	8344f843          	fmadd.d	fa6,fs1,fs4,fa6
    80003938:	3b4473c3          	fmadd.d	ft7,fs0,fs4,ft7
    8000393c:	334ff343          	fmadd.d	ft6,ft11,fs4,ft6
    80003940:	2b4f72c3          	fmadd.d	ft5,ft10,fs4,ft5
    80003944:	63497643          	fmadd.d	fa2,fs2,fs4,fa2
    80003948:	7a24f7c3          	fmadd.d	fa5,fs1,ft2,fa5
    8000394c:	ea247ec3          	fmadd.d	ft9,fs0,ft2,ft9
    80003950:	e22ffe43          	fmadd.d	ft8,ft11,ft2,ft8
    80003954:	1a2f71c3          	fmadd.d	ft3,ft10,ft2,ft3
    80003958:	23797243          	fmadd.d	ft4,fs2,fs7,ft4
    8000395c:	008e0e33          	add	t3,t3,s0
    80003960:	0187bc07          	fld	fs8,24(a5)
    80003964:	000e3487          	fld	fs1,0(t3)
    80003968:	008e3407          	fld	fs0,8(t3)
    8000396c:	010e3f87          	fld	ft11,16(t3)
    80003970:	018e3f07          	fld	ft10,24(t3)
    80003974:	020e3b87          	fld	fs7,32(t3)
    80003978:	0186ba07          	fld	fs4,24(a3)
    8000397c:	01863907          	fld	fs2,24(a2)
    80003980:	01873107          	fld	ft2,24(a4)
    80003984:	b29c7b43          	fmadd.d	fs6,fs8,fs1,fs6
    80003988:	232bf243          	fmadd.d	ft4,fs7,fs2,ft4
    8000398c:	aa8c7ac3          	fmadd.d	fs5,fs8,fs0,fs5
    80003990:	8bfc78c3          	fmadd.d	fa7,fs8,ft11,fa7
    80003994:	9bec79c3          	fmadd.d	fs3,fs8,ft10,fs3
    80003998:	5b7c75c3          	fmadd.d	fa1,fs8,fs7,fa1
    8000399c:	8344f843          	fmadd.d	fa6,fs1,fs4,fa6
    800039a0:	3b4473c3          	fmadd.d	ft7,fs0,fs4,ft7
    800039a4:	334ff343          	fmadd.d	ft6,ft11,fs4,ft6
    800039a8:	2b4f72c3          	fmadd.d	ft5,ft10,fs4,ft5
    800039ac:	634bf643          	fmadd.d	fa2,fs7,fs4,fa2
    800039b0:	7a24f7c3          	fmadd.d	fa5,fs1,ft2,fa5
    800039b4:	ea247ec3          	fmadd.d	ft9,fs0,ft2,ft9
    800039b8:	e22ffe43          	fmadd.d	ft8,ft11,ft2,ft8
    800039bc:	1a2f71c3          	fmadd.d	ft3,ft10,ft2,ft3
    800039c0:	532fffc3          	fmadd.d	ft11,ft11,fs2,fa0
    800039c4:	732f7f43          	fmadd.d	ft10,ft10,fs2,fa4
    800039c8:	6a2bf143          	fmadd.d	ft2,fs7,ft2,fa3
    800039cc:	0b24f4c3          	fmadd.d	fs1,fs1,fs2,ft1
    800039d0:	03247443          	fmadd.d	fs0,fs0,fs2,ft0
    800039d4:	008e0e33          	add	t3,t3,s0
    800039d8:	0207bc07          	fld	fs8,32(a5)
    800039dc:	02073687          	fld	fa3,32(a4)
    800039e0:	0206ba07          	fld	fs4,32(a3)
    800039e4:	02063b87          	fld	fs7,32(a2)
    800039e8:	000e3087          	fld	ft1,0(t3)
    800039ec:	008e3007          	fld	ft0,8(t3)
    800039f0:	010e3d07          	fld	fs10,16(t3)
    800039f4:	018e3d87          	fld	fs11,24(t3)
    800039f8:	020e3907          	fld	fs2,32(t3)
    800039fc:	b21c7b43          	fmadd.d	fs6,fs8,ft1,fs6
    80003a00:	aa0c7ac3          	fmadd.d	fs5,fs8,ft0,fs5
    80003a04:	8bac78c3          	fmadd.d	fa7,fs8,fs10,fa7
    80003a08:	9bbc79c3          	fmadd.d	fs3,fs8,fs11,fs3
    80003a0c:	7ad0f7c3          	fmadd.d	fa5,ft1,fa3,fa5
    80003a10:	ead07ec3          	fmadd.d	ft9,ft0,fa3,ft9
    80003a14:	e2dd7e43          	fmadd.d	ft8,fs10,fa3,ft8
    80003a18:	1addf1c3          	fmadd.d	ft3,fs11,fa3,ft3
    80003a1c:	4b70f4c3          	fmadd.d	fs1,ft1,fs7,fs1
    80003a20:	43707443          	fmadd.d	fs0,ft0,fs7,fs0
    80003a24:	5b2c75c3          	fmadd.d	fa1,fs8,fs2,fa1
    80003a28:	8340f843          	fmadd.d	fa6,ft1,fs4,fa6
    80003a2c:	3b4073c3          	fmadd.d	ft7,ft0,fs4,ft7
    80003a30:	334d7343          	fmadd.d	ft6,fs10,fs4,ft6
    80003a34:	2b4df2c3          	fmadd.d	ft5,fs11,fs4,ft5
    80003a38:	fb7d7d43          	fmadd.d	fs10,fs10,fs7,ft11
    80003a3c:	f37dfdc3          	fmadd.d	fs11,fs11,fs7,ft10
    80003a40:	12d97143          	fmadd.d	ft2,fs2,fa3,ft2
    80003a44:	23797bc3          	fmadd.d	fs7,fs2,fs7,ft4
    80003a48:	63497643          	fmadd.d	fa2,fs2,fs4,fa2
    80003a4c:	008e0e33          	add	t3,t3,s0
    80003a50:	0287bf87          	fld	ft11,40(a5)
    80003a54:	0286bf07          	fld	ft10,40(a3)
    80003a58:	02873687          	fld	fa3,40(a4)
    80003a5c:	02863207          	fld	ft4,40(a2)
    80003a60:	000e3087          	fld	ft1,0(t3)
    80003a64:	008e3007          	fld	ft0,8(t3)
    80003a68:	010e3507          	fld	fa0,16(t3)
    80003a6c:	018e3707          	fld	fa4,24(t3)
    80003a70:	020e3c07          	fld	fs8,32(t3)
    80003a74:	03078793          	addi	a5,a5,48
    80003a78:	b21ffb43          	fmadd.d	fs6,ft11,ft1,fs6
    80003a7c:	aa0ffac3          	fmadd.d	fs5,ft11,ft0,fs5
    80003a80:	8aaff8c3          	fmadd.d	fa7,ft11,fa0,fa7
    80003a84:	9aeff9c3          	fmadd.d	fs3,ft11,fa4,fs3
    80003a88:	83e0f843          	fmadd.d	fa6,ft1,ft10,fa6
    80003a8c:	3be073c3          	fmadd.d	ft7,ft0,ft10,ft7
    80003a90:	33e57343          	fmadd.d	ft6,fa0,ft10,ft6
    80003a94:	2be772c3          	fmadd.d	ft5,fa4,ft10,ft5
    80003a98:	7ad0f7c3          	fmadd.d	fa5,ft1,fa3,fa5
    80003a9c:	ead07ec3          	fmadd.d	ft9,ft0,fa3,ft9
    80003aa0:	e2d57e43          	fmadd.d	ft8,fa0,fa3,ft8
    80003aa4:	1ad771c3          	fmadd.d	ft3,fa4,fa3,ft3
    80003aa8:	4a40f0c3          	fmadd.d	ft1,ft1,ft4,fs1
    80003aac:	42407043          	fmadd.d	ft0,ft0,ft4,fs0
    80003ab0:	d2457543          	fmadd.d	fa0,fa0,ft4,fs10
    80003ab4:	da477743          	fmadd.d	fa4,fa4,ft4,fs11
    80003ab8:	5b8ff5c3          	fmadd.d	fa1,ft11,fs8,fa1
    80003abc:	63ec7643          	fmadd.d	fa2,fs8,ft10,fa2
    80003ac0:	12dc7143          	fmadd.d	ft2,fs8,fa3,ft2
    80003ac4:	ba4c7243          	fmadd.d	ft4,fs8,ft4,fs7
    80003ac8:	008e0e33          	add	t3,t3,s0
    80003acc:	03068693          	addi	a3,a3,48
    80003ad0:	03070713          	addi	a4,a4,48
    80003ad4:	03060613          	addi	a2,a2,48
    80003ad8:	d2b7e0e3          	bltu	a5,a1,800037f8 <mm+0x204>
    80003adc:	22f78f53          	fmv.d	ft10,fa5
    80003ae0:	23188a53          	fmv.d	fs4,fa7
    80003ae4:	23080953          	fmv.d	fs2,fa6
    80003ae8:	227384d3          	fmv.d	fs1,ft7
    80003aec:	22630453          	fmv.d	fs0,ft6
    80003af0:	22528fd3          	fmv.d	ft11,ft5
    80003af4:	224207d3          	fmv.d	fa5,ft4
    80003af8:	000f0e13          	mv	t3,t5
    80003afc:	000f8f13          	mv	t5,t6
    80003b00:	014e87b3          	add	a5,t4,s4
    80003b04:	0bc5f063          	bleu	t3,a1,80003ba4 <mm+0x5b0>
    80003b08:	009a8fb3          	add	t6,s5,s1
    80003b0c:	009b0633          	add	a2,s6,s1
    80003b10:	009b86b3          	add	a3,s7,s1
    80003b14:	00058713          	mv	a4,a1
    80003b18:	00073307          	fld	ft6,0(a4)
    80003b1c:	000fb287          	fld	ft5,0(t6)
    80003b20:	00063207          	fld	ft4,0(a2)
    80003b24:	0006b687          	fld	fa3,0(a3)
    80003b28:	0007bc07          	fld	fs8,0(a5)
    80003b2c:	0087bb87          	fld	fs7,8(a5)
    80003b30:	0107b887          	fld	fa7,16(a5)
    80003b34:	0187b807          	fld	fa6,24(a5)
    80003b38:	0207b387          	fld	ft7,32(a5)
    80003b3c:	00870713          	addi	a4,a4,8
    80003b40:	b3837b43          	fmadd.d	fs6,ft6,fs8,fs6
    80003b44:	ab737ac3          	fmadd.d	fs5,ft6,fs7,fs5
    80003b48:	a3137a43          	fmadd.d	fs4,ft6,fa7,fs4
    80003b4c:	9b0379c3          	fmadd.d	fs3,ft6,fa6,fs3
    80003b50:	5a7375c3          	fmadd.d	fa1,ft6,ft7,fa1
    80003b54:	925c7943          	fmadd.d	fs2,fs8,ft5,fs2
    80003b58:	4a5bf4c3          	fmadd.d	fs1,fs7,ft5,fs1
    80003b5c:	4258f443          	fmadd.d	fs0,fa7,ft5,fs0
    80003b60:	fa587fc3          	fmadd.d	ft11,fa6,ft5,ft11
    80003b64:	6253f643          	fmadd.d	fa2,ft7,ft5,fa2
    80003b68:	f24c7f43          	fmadd.d	ft10,fs8,ft4,ft10
    80003b6c:	ea4bfec3          	fmadd.d	ft9,fs7,ft4,ft9
    80003b70:	e248fe43          	fmadd.d	ft8,fa7,ft4,ft8
    80003b74:	1a4871c3          	fmadd.d	ft3,fa6,ft4,ft3
    80003b78:	1243f143          	fmadd.d	ft2,ft7,ft4,ft2
    80003b7c:	0adc70c3          	fmadd.d	ft1,fs8,fa3,ft1
    80003b80:	02dbf043          	fmadd.d	ft0,fs7,fa3,ft0
    80003b84:	52d8f543          	fmadd.d	fa0,fa7,fa3,fa0
    80003b88:	72d87743          	fmadd.d	fa4,fa6,fa3,fa4
    80003b8c:	7ad3f7c3          	fmadd.d	fa5,ft7,fa3,fa5
    80003b90:	008787b3          	add	a5,a5,s0
    80003b94:	008f8f93          	addi	t6,t6,8
    80003b98:	00860613          	addi	a2,a2,8
    80003b9c:	00868693          	addi	a3,a3,8
    80003ba0:	f7c76ce3          	bltu	a4,t3,80003b18 <mm+0x524>
    80003ba4:	0168b027          	fsd	fs6,0(a7)
    80003ba8:	0158b427          	fsd	fs5,8(a7)
    80003bac:	0148b827          	fsd	fs4,16(a7)
    80003bb0:	0138bc27          	fsd	fs3,24(a7)
    80003bb4:	02b8b027          	fsd	fa1,32(a7)
    80003bb8:	01283027          	fsd	fs2,0(a6)
    80003bbc:	00983427          	fsd	fs1,8(a6)
    80003bc0:	00883827          	fsd	fs0,16(a6)
    80003bc4:	01f83c27          	fsd	ft11,24(a6)
    80003bc8:	02c83027          	fsd	fa2,32(a6)
    80003bcc:	01e53027          	fsd	ft10,0(a0)
    80003bd0:	01d53427          	fsd	ft9,8(a0)
    80003bd4:	01c53827          	fsd	ft8,16(a0)
    80003bd8:	00353c27          	fsd	ft3,24(a0)
    80003bdc:	02253027          	fsd	ft2,32(a0)
    80003be0:	00133027          	fsd	ft1,0(t1)
    80003be4:	00033427          	fsd	ft0,8(t1)
    80003be8:	00a33827          	fsd	fa0,16(t1)
    80003bec:	00e33c27          	fsd	fa4,24(t1)
    80003bf0:	02f33027          	fsd	fa5,32(t1)
    80003bf4:	005f0f13          	addi	t5,t5,5
    80003bf8:	02888893          	addi	a7,a7,40
    80003bfc:	02880813          	addi	a6,a6,40
    80003c00:	02850513          	addi	a0,a0,40
    80003c04:	02830313          	addi	t1,t1,40
    80003c08:	028e8e93          	addi	t4,t4,40
    80003c0c:	b53f6ee3          	bltu	t5,s3,80003768 <mm+0x174>
    80003c10:	05013783          	ld	a5,80(sp)
    80003c14:	02813803          	ld	a6,40(sp)
    80003c18:	01013703          	ld	a4,16(sp)
    80003c1c:	00fc08b3          	add	a7,s8,a5
    80003c20:	01813603          	ld	a2,24(sp)
    80003c24:	05813783          	ld	a5,88(sp)
    80003c28:	04813583          	ld	a1,72(sp)
    80003c2c:	00048693          	mv	a3,s1
    80003c30:	00400513          	li	a0,4
    80003c34:	01b13023          	sd	s11,0(sp)
    80003c38:	00ad0d33          	add	s10,s10,a0
    80003c3c:	821fd0ef          	jal	8000145c <mm_naive>
    80003c40:	04013783          	ld	a5,64(sp)
    80003c44:	00f484b3          	add	s1,s1,a5
    80003c48:	03813783          	ld	a5,56(sp)
    80003c4c:	00fc0c33          	add	s8,s8,a5
    80003c50:	03013783          	ld	a5,48(sp)
    80003c54:	aefd64e3          	bltu	s10,a5,8000373c <mm+0x148>
    80003c58:	03013683          	ld	a3,48(sp)
    80003c5c:	08813503          	ld	a0,136(sp)
    80003c60:	08013303          	ld	t1,128(sp)
    80003c64:	02dc88b3          	mul	a7,s9,a3
    80003c68:	40d50533          	sub	a0,a0,a3
    80003c6c:	17b13023          	sd	s11,352(sp)
    80003c70:	02813803          	ld	a6,40(sp)
    80003c74:	02013783          	ld	a5,32(sp)
    80003c78:	01013703          	ld	a4,16(sp)
    80003c7c:	01813603          	ld	a2,24(sp)
    80003c80:	07013583          	ld	a1,112(sp)
    80003c84:	15813083          	ld	ra,344(sp)
    80003c88:	15013403          	ld	s0,336(sp)
    80003c8c:	02d906b3          	mul	a3,s2,a3
    80003c90:	011308b3          	add	a7,t1,a7
    80003c94:	07813303          	ld	t1,120(sp)
    80003c98:	14813483          	ld	s1,328(sp)
    80003c9c:	14013903          	ld	s2,320(sp)
    80003ca0:	13813983          	ld	s3,312(sp)
    80003ca4:	13013a03          	ld	s4,304(sp)
    80003ca8:	12813a83          	ld	s5,296(sp)
    80003cac:	12013b03          	ld	s6,288(sp)
    80003cb0:	11813b83          	ld	s7,280(sp)
    80003cb4:	11013c03          	ld	s8,272(sp)
    80003cb8:	10813c83          	ld	s9,264(sp)
    80003cbc:	10013d03          	ld	s10,256(sp)
    80003cc0:	0f813d83          	ld	s11,248(sp)
    80003cc4:	0e813407          	fld	fs0,232(sp)
    80003cc8:	0e013487          	fld	fs1,224(sp)
    80003ccc:	0d813907          	fld	fs2,216(sp)
    80003cd0:	0d013987          	fld	fs3,208(sp)
    80003cd4:	0c813a07          	fld	fs4,200(sp)
    80003cd8:	0c013a87          	fld	fs5,192(sp)
    80003cdc:	0b813b07          	fld	fs6,184(sp)
    80003ce0:	0b013b87          	fld	fs7,176(sp)
    80003ce4:	0a813c07          	fld	fs8,168(sp)
    80003ce8:	0a013d07          	fld	fs10,160(sp)
    80003cec:	09813d87          	fld	fs11,152(sp)
    80003cf0:	00d306b3          	add	a3,t1,a3
    80003cf4:	16010113          	addi	sp,sp,352
    80003cf8:	f64fd06f          	j	8000145c <mm_naive>
    80003cfc:	17b13023          	sd	s11,352(sp)
    80003d00:	15813083          	ld	ra,344(sp)
    80003d04:	15013403          	ld	s0,336(sp)
    80003d08:	14813483          	ld	s1,328(sp)
    80003d0c:	14013903          	ld	s2,320(sp)
    80003d10:	13813983          	ld	s3,312(sp)
    80003d14:	13013a03          	ld	s4,304(sp)
    80003d18:	12813a83          	ld	s5,296(sp)
    80003d1c:	12013b03          	ld	s6,288(sp)
    80003d20:	11813b83          	ld	s7,280(sp)
    80003d24:	11013c03          	ld	s8,272(sp)
    80003d28:	10813c83          	ld	s9,264(sp)
    80003d2c:	10013d03          	ld	s10,256(sp)
    80003d30:	0f813d83          	ld	s11,248(sp)
    80003d34:	0e813407          	fld	fs0,232(sp)
    80003d38:	0e013487          	fld	fs1,224(sp)
    80003d3c:	0d813907          	fld	fs2,216(sp)
    80003d40:	0d013987          	fld	fs3,208(sp)
    80003d44:	0c813a07          	fld	fs4,200(sp)
    80003d48:	0c013a87          	fld	fs5,192(sp)
    80003d4c:	0b813b07          	fld	fs6,184(sp)
    80003d50:	0b013b87          	fld	fs7,176(sp)
    80003d54:	0a813c07          	fld	fs8,168(sp)
    80003d58:	0a013d07          	fld	fs10,160(sp)
    80003d5c:	09813d87          	fld	fs11,152(sp)
    80003d60:	16010113          	addi	sp,sp,352
    80003d64:	8c5fd06f          	j	80001628 <mm_cb>
    80003d68:	01013783          	ld	a5,16(sp)
    80003d6c:	003d9c93          	slli	s9,s11,0x3
    80003d70:	00379913          	slli	s2,a5,0x3
    80003d74:	ee5ff06f          	j	80003c58 <mm+0x664>

0000000080003d78 <putchar>:
    80003d78:	08022603          	lw	a2,128(tp) # 80 <buflen.2676>
    80003d7c:	00060813          	mv	a6,a2
    80003d80:	04020793          	addi	a5,tp,64 # 40 <buf.2675>
    80003d84:	010787b3          	add	a5,a5,a6
    80003d88:	0016061b          	addiw	a2,a2,1
    80003d8c:	00a78023          	sb	a0,0(a5)
    80003d90:	08c22023          	sw	a2,128(tp) # 80 <buflen.2676>
    80003d94:	00a00793          	li	a5,10
    80003d98:	00f50a63          	beq	a0,a5,80003dac <putchar+0x34>
    80003d9c:	04000793          	li	a5,64
    80003da0:	00f60663          	beq	a2,a5,80003dac <putchar+0x34>
    80003da4:	00000513          	li	a0,0
    80003da8:	00008067          	ret
    80003dac:	04000893          	li	a7,64
    80003db0:	00100513          	li	a0,1
    80003db4:	04020593          	addi	a1,tp,64 # 40 <buf.2675>
    80003db8:	00000073          	ecall
    80003dbc:	08022023          	sw	zero,128(tp) # 80 <buflen.2676>
    80003dc0:	00000513          	li	a0,0
    80003dc4:	00008067          	ret

0000000080003dc8 <vprintfmt>:
    80003dc8:	e8010113          	addi	sp,sp,-384
    80003dcc:	17213023          	sd	s2,352(sp)
    80003dd0:	15313c23          	sd	s3,344(sp)
    80003dd4:	15413823          	sd	s4,336(sp)
    80003dd8:	15513423          	sd	s5,328(sp)
    80003ddc:	15613023          	sd	s6,320(sp)
    80003de0:	13713c23          	sd	s7,312(sp)
    80003de4:	16113c23          	sd	ra,376(sp)
    80003de8:	16813823          	sd	s0,368(sp)
    80003dec:	16913423          	sd	s1,360(sp)
    80003df0:	13813823          	sd	s8,304(sp)
    80003df4:	13913423          	sd	s9,296(sp)
    80003df8:	13a13023          	sd	s10,288(sp)
    80003dfc:	11b13c23          	sd	s11,280(sp)
    80003e00:	00050a13          	mv	s4,a0
    80003e04:	00058993          	mv	s3,a1
    80003e08:	00060913          	mv	s2,a2
    80003e0c:	00d13423          	sd	a3,8(sp)
    80003e10:	00001b97          	auipc	s7,0x1
    80003e14:	b88b8b93          	addi	s7,s7,-1144 # 80004998 <main+0x138>
    80003e18:	03000a93          	li	s5,48
    80003e1c:	05700b13          	li	s6,87
    80003e20:	00094503          	lbu	a0,0(s2)
    80003e24:	02500413          	li	s0,37
    80003e28:	00850e63          	beq	a0,s0,80003e44 <vprintfmt+0x7c>
    80003e2c:	06050663          	beqz	a0,80003e98 <vprintfmt+0xd0>
    80003e30:	00098593          	mv	a1,s3
    80003e34:	00190913          	addi	s2,s2,1
    80003e38:	000a00e7          	jalr	s4
    80003e3c:	00094503          	lbu	a0,0(s2)
    80003e40:	fe8516e3          	bne	a0,s0,80003e2c <vprintfmt+0x64>
    80003e44:	00194683          	lbu	a3,1(s2)
    80003e48:	00190493          	addi	s1,s2,1
    80003e4c:	fff00413          	li	s0,-1
    80003e50:	00048713          	mv	a4,s1
    80003e54:	02000d13          	li	s10,32
    80003e58:	00040c93          	mv	s9,s0
    80003e5c:	00000813          	li	a6,0
    80003e60:	05500593          	li	a1,85
    80003e64:	03000313          	li	t1,48
    80003e68:	00900513          	li	a0,9
    80003e6c:	02d00893          	li	a7,45
    80003e70:	fdd6879b          	addiw	a5,a3,-35
    80003e74:	0ff7fe13          	andi	t3,a5,255
    80003e78:	00170913          	addi	s2,a4,1
    80003e7c:	2bc5ee63          	bltu	a1,t3,80004138 <vprintfmt+0x370>
    80003e80:	0ff7f793          	andi	a5,a5,255
    80003e84:	00279793          	slli	a5,a5,0x2
    80003e88:	017787b3          	add	a5,a5,s7
    80003e8c:	0007a783          	lw	a5,0(a5)
    80003e90:	017787b3          	add	a5,a5,s7
    80003e94:	00078067          	jr	a5
    80003e98:	17813083          	ld	ra,376(sp)
    80003e9c:	17013403          	ld	s0,368(sp)
    80003ea0:	16813483          	ld	s1,360(sp)
    80003ea4:	16013903          	ld	s2,352(sp)
    80003ea8:	15813983          	ld	s3,344(sp)
    80003eac:	15013a03          	ld	s4,336(sp)
    80003eb0:	14813a83          	ld	s5,328(sp)
    80003eb4:	14013b03          	ld	s6,320(sp)
    80003eb8:	13813b83          	ld	s7,312(sp)
    80003ebc:	13013c03          	ld	s8,304(sp)
    80003ec0:	12813c83          	ld	s9,296(sp)
    80003ec4:	12013d03          	ld	s10,288(sp)
    80003ec8:	11813d83          	ld	s11,280(sp)
    80003ecc:	18010113          	addi	sp,sp,384
    80003ed0:	00008067          	ret
    80003ed4:	000cd463          	bgez	s9,80003edc <vprintfmt+0x114>
    80003ed8:	00000c93          	li	s9,0
    80003edc:	00174683          	lbu	a3,1(a4)
    80003ee0:	00090713          	mv	a4,s2
    80003ee4:	f8dff06f          	j	80003e70 <vprintfmt+0xa8>
    80003ee8:	00800d93          	li	s11,8
    80003eec:	00100793          	li	a5,1
    80003ef0:	1d07c663          	blt	a5,a6,800040bc <vprintfmt+0x2f4>
    80003ef4:	1c081463          	bnez	a6,800040bc <vprintfmt+0x2f4>
    80003ef8:	00813783          	ld	a5,8(sp)
    80003efc:	0007e483          	lwu	s1,0(a5)
    80003f00:	00878793          	addi	a5,a5,8
    80003f04:	00f13423          	sd	a5,8(sp)
    80003f08:	03b4f7b3          	remu	a5,s1,s11
    80003f0c:	01410713          	addi	a4,sp,20
    80003f10:	00100413          	li	s0,1
    80003f14:	00f12823          	sw	a5,16(sp)
    80003f18:	01b4f663          	bleu	s11,s1,80003f24 <vprintfmt+0x15c>
    80003f1c:	3000006f          	j	8000421c <vprintfmt+0x454>
    80003f20:	000c0413          	mv	s0,s8
    80003f24:	03b4d4b3          	divu	s1,s1,s11
    80003f28:	00470713          	addi	a4,a4,4
    80003f2c:	00140c1b          	addiw	s8,s0,1
    80003f30:	03b4f7b3          	remu	a5,s1,s11
    80003f34:	fef72e23          	sw	a5,-4(a4)
    80003f38:	ffb4f4e3          	bleu	s11,s1,80003f20 <vprintfmt+0x158>
    80003f3c:	fffc849b          	addiw	s1,s9,-1
    80003f40:	039c5063          	ble	s9,s8,80003f60 <vprintfmt+0x198>
    80003f44:	00098593          	mv	a1,s3
    80003f48:	000d0513          	mv	a0,s10
    80003f4c:	fff4849b          	addiw	s1,s1,-1
    80003f50:	000a00e7          	jalr	s4
    80003f54:	0014879b          	addiw	a5,s1,1
    80003f58:	fefc46e3          	blt	s8,a5,80003f44 <vprintfmt+0x17c>
    80003f5c:	ed8052e3          	blez	s8,80003e20 <vprintfmt+0x58>
    80003f60:	00241793          	slli	a5,s0,0x2
    80003f64:	11010713          	addi	a4,sp,272
    80003f68:	00f707b3          	add	a5,a4,a5
    80003f6c:	f007a783          	lw	a5,-256(a5)
    80003f70:	fff4049b          	addiw	s1,s0,-1
    80003f74:	00249493          	slli	s1,s1,0x2
    80003f78:	01010713          	addi	a4,sp,16
    80003f7c:	009704b3          	add	s1,a4,s1
    80003f80:	00900d13          	li	s10,9
    80003f84:	0100006f          	j	80003f94 <vprintfmt+0x1cc>
    80003f88:	0004a783          	lw	a5,0(s1)
    80003f8c:	fff4041b          	addiw	s0,s0,-1
    80003f90:	ffc48493          	addi	s1,s1,-4
    80003f94:	000a8513          	mv	a0,s5
    80003f98:	00fd7463          	bleu	a5,s10,80003fa0 <vprintfmt+0x1d8>
    80003f9c:	000b0513          	mv	a0,s6
    80003fa0:	00098593          	mv	a1,s3
    80003fa4:	00f5053b          	addw	a0,a0,a5
    80003fa8:	000a00e7          	jalr	s4
    80003fac:	fc804ee3          	bgtz	s0,80003f88 <vprintfmt+0x1c0>
    80003fb0:	e71ff06f          	j	80003e20 <vprintfmt+0x58>
    80003fb4:	00098593          	mv	a1,s3
    80003fb8:	02500513          	li	a0,37
    80003fbc:	000a00e7          	jalr	s4
    80003fc0:	e61ff06f          	j	80003e20 <vprintfmt+0x58>
    80003fc4:	00813783          	ld	a5,8(sp)
    80003fc8:	00174683          	lbu	a3,1(a4)
    80003fcc:	00090713          	mv	a4,s2
    80003fd0:	0007a403          	lw	s0,0(a5)
    80003fd4:	00878793          	addi	a5,a5,8
    80003fd8:	00f13423          	sd	a5,8(sp)
    80003fdc:	e80cdae3          	bgez	s9,80003e70 <vprintfmt+0xa8>
    80003fe0:	00040c93          	mv	s9,s0
    80003fe4:	fff00413          	li	s0,-1
    80003fe8:	e89ff06f          	j	80003e70 <vprintfmt+0xa8>
    80003fec:	00174683          	lbu	a3,1(a4)
    80003ff0:	00088d13          	mv	s10,a7
    80003ff4:	00090713          	mv	a4,s2
    80003ff8:	e79ff06f          	j	80003e70 <vprintfmt+0xa8>
    80003ffc:	00174683          	lbu	a3,1(a4)
    80004000:	00030d13          	mv	s10,t1
    80004004:	00090713          	mv	a4,s2
    80004008:	e69ff06f          	j	80003e70 <vprintfmt+0xa8>
    8000400c:	00174783          	lbu	a5,1(a4)
    80004010:	fd06841b          	addiw	s0,a3,-48
    80004014:	fd07871b          	addiw	a4,a5,-48
    80004018:	00078e13          	mv	t3,a5
    8000401c:	1ee56a63          	bltu	a0,a4,80004210 <vprintfmt+0x448>
    80004020:	00090713          	mv	a4,s2
    80004024:	00170713          	addi	a4,a4,1
    80004028:	0024179b          	slliw	a5,s0,0x2
    8000402c:	00074683          	lbu	a3,0(a4)
    80004030:	0087843b          	addw	s0,a5,s0
    80004034:	0014141b          	slliw	s0,s0,0x1
    80004038:	01c4043b          	addw	s0,s0,t3
    8000403c:	fd06879b          	addiw	a5,a3,-48
    80004040:	fd04041b          	addiw	s0,s0,-48
    80004044:	00068e13          	mv	t3,a3
    80004048:	fcf57ee3          	bleu	a5,a0,80004024 <vprintfmt+0x25c>
    8000404c:	f91ff06f          	j	80003fdc <vprintfmt+0x214>
    80004050:	00813783          	ld	a5,8(sp)
    80004054:	00098593          	mv	a1,s3
    80004058:	0007a503          	lw	a0,0(a5)
    8000405c:	00878c13          	addi	s8,a5,8
    80004060:	000a00e7          	jalr	s4
    80004064:	01813423          	sd	s8,8(sp)
    80004068:	db9ff06f          	j	80003e20 <vprintfmt+0x58>
    8000406c:	00100793          	li	a5,1
    80004070:	1507d863          	ble	a6,a5,800041c0 <vprintfmt+0x3f8>
    80004074:	00813783          	ld	a5,8(sp)
    80004078:	0007b483          	ld	s1,0(a5)
    8000407c:	00878793          	addi	a5,a5,8
    80004080:	00f13423          	sd	a5,8(sp)
    80004084:	00a00d93          	li	s11,10
    80004088:	e804d0e3          	bgez	s1,80003f08 <vprintfmt+0x140>
    8000408c:	00098593          	mv	a1,s3
    80004090:	02d00513          	li	a0,45
    80004094:	000a00e7          	jalr	s4
    80004098:	409004b3          	neg	s1,s1
    8000409c:	e6dff06f          	j	80003f08 <vprintfmt+0x140>
    800040a0:	000a8513          	mv	a0,s5
    800040a4:	00098593          	mv	a1,s3
    800040a8:	000a00e7          	jalr	s4
    800040ac:	00098593          	mv	a1,s3
    800040b0:	07800513          	li	a0,120
    800040b4:	000a00e7          	jalr	s4
    800040b8:	01000d93          	li	s11,16
    800040bc:	00813783          	ld	a5,8(sp)
    800040c0:	0007b483          	ld	s1,0(a5)
    800040c4:	00878793          	addi	a5,a5,8
    800040c8:	00f13423          	sd	a5,8(sp)
    800040cc:	e3dff06f          	j	80003f08 <vprintfmt+0x140>
    800040d0:	00813783          	ld	a5,8(sp)
    800040d4:	0007b483          	ld	s1,0(a5)
    800040d8:	00878c13          	addi	s8,a5,8
    800040dc:	10048c63          	beqz	s1,800041f4 <vprintfmt+0x42c>
    800040e0:	09905663          	blez	s9,8000416c <vprintfmt+0x3a4>
    800040e4:	02d00793          	li	a5,45
    800040e8:	10fd0063          	beq	s10,a5,800041e8 <vprintfmt+0x420>
    800040ec:	14040c63          	beqz	s0,80004244 <vprintfmt+0x47c>
    800040f0:	0004c783          	lbu	a5,0(s1)
    800040f4:	06078263          	beqz	a5,80004158 <vprintfmt+0x390>
    800040f8:	00148793          	addi	a5,s1,1
    800040fc:	008485b3          	add	a1,s1,s0
    80004100:	04b78663          	beq	a5,a1,8000414c <vprintfmt+0x384>
    80004104:	00178713          	addi	a4,a5,1
    80004108:	fff74683          	lbu	a3,-1(a4)
    8000410c:	04068063          	beqz	a3,8000414c <vprintfmt+0x384>
    80004110:	00070793          	mv	a5,a4
    80004114:	fedff06f          	j	80004100 <vprintfmt+0x338>
    80004118:	00174683          	lbu	a3,1(a4)
    8000411c:	0018081b          	addiw	a6,a6,1
    80004120:	00090713          	mv	a4,s2
    80004124:	d4dff06f          	j	80003e70 <vprintfmt+0xa8>
    80004128:	00a00d93          	li	s11,10
    8000412c:	dc1ff06f          	j	80003eec <vprintfmt+0x124>
    80004130:	01000d93          	li	s11,16
    80004134:	db9ff06f          	j	80003eec <vprintfmt+0x124>
    80004138:	00098593          	mv	a1,s3
    8000413c:	02500513          	li	a0,37
    80004140:	000a00e7          	jalr	s4
    80004144:	00048913          	mv	s2,s1
    80004148:	cd9ff06f          	j	80003e20 <vprintfmt+0x58>
    8000414c:	409787bb          	subw	a5,a5,s1
    80004150:	40fc8cbb          	subw	s9,s9,a5
    80004154:	01905c63          	blez	s9,8000416c <vprintfmt+0x3a4>
    80004158:	fffc8c9b          	addiw	s9,s9,-1
    8000415c:	00098593          	mv	a1,s3
    80004160:	000d0513          	mv	a0,s10
    80004164:	000a00e7          	jalr	s4
    80004168:	fe0c98e3          	bnez	s9,80004158 <vprintfmt+0x390>
    8000416c:	0004c503          	lbu	a0,0(s1)
    80004170:	04050463          	beqz	a0,800041b8 <vprintfmt+0x3f0>
    80004174:	00044863          	bltz	s0,80004184 <vprintfmt+0x3bc>
    80004178:	fff4041b          	addiw	s0,s0,-1
    8000417c:	fff00793          	li	a5,-1
    80004180:	00f40e63          	beq	s0,a5,8000419c <vprintfmt+0x3d4>
    80004184:	00098593          	mv	a1,s3
    80004188:	00148493          	addi	s1,s1,1
    8000418c:	000a00e7          	jalr	s4
    80004190:	0004c503          	lbu	a0,0(s1)
    80004194:	fffc8c9b          	addiw	s9,s9,-1
    80004198:	fc051ee3          	bnez	a0,80004174 <vprintfmt+0x3ac>
    8000419c:	01905e63          	blez	s9,800041b8 <vprintfmt+0x3f0>
    800041a0:	02000413          	li	s0,32
    800041a4:	fffc8c9b          	addiw	s9,s9,-1
    800041a8:	00098593          	mv	a1,s3
    800041ac:	00040513          	mv	a0,s0
    800041b0:	000a00e7          	jalr	s4
    800041b4:	fe0c98e3          	bnez	s9,800041a4 <vprintfmt+0x3dc>
    800041b8:	01813423          	sd	s8,8(sp)
    800041bc:	c65ff06f          	j	80003e20 <vprintfmt+0x58>
    800041c0:	00813783          	ld	a5,8(sp)
    800041c4:	00080a63          	beqz	a6,800041d8 <vprintfmt+0x410>
    800041c8:	0007b483          	ld	s1,0(a5)
    800041cc:	00878793          	addi	a5,a5,8
    800041d0:	00f13423          	sd	a5,8(sp)
    800041d4:	eb1ff06f          	j	80004084 <vprintfmt+0x2bc>
    800041d8:	0007a483          	lw	s1,0(a5)
    800041dc:	00878793          	addi	a5,a5,8
    800041e0:	00f13423          	sd	a5,8(sp)
    800041e4:	ea1ff06f          	j	80004084 <vprintfmt+0x2bc>
    800041e8:	0004c503          	lbu	a0,0(s1)
    800041ec:	f80514e3          	bnez	a0,80004174 <vprintfmt+0x3ac>
    800041f0:	fb1ff06f          	j	800041a0 <vprintfmt+0x3d8>
    800041f4:	05905063          	blez	s9,80004234 <vprintfmt+0x46c>
    800041f8:	02d00793          	li	a5,45
    800041fc:	00000497          	auipc	s1,0x0
    80004200:	75448493          	addi	s1,s1,1876 # 80004950 <main+0xf0>
    80004204:	02800513          	li	a0,40
    80004208:	eefd12e3          	bne	s10,a5,800040ec <vprintfmt+0x324>
    8000420c:	f69ff06f          	j	80004174 <vprintfmt+0x3ac>
    80004210:	00078693          	mv	a3,a5
    80004214:	00090713          	mv	a4,s2
    80004218:	dc5ff06f          	j	80003fdc <vprintfmt+0x214>
    8000421c:	00040693          	mv	a3,s0
    80004220:	fffc849b          	addiw	s1,s9,-1
    80004224:	00000413          	li	s0,0
    80004228:	00068c13          	mv	s8,a3
    8000422c:	d196cce3          	blt	a3,s9,80003f44 <vprintfmt+0x17c>
    80004230:	d41ff06f          	j	80003f70 <vprintfmt+0x1a8>
    80004234:	02800513          	li	a0,40
    80004238:	00000497          	auipc	s1,0x0
    8000423c:	71848493          	addi	s1,s1,1816 # 80004950 <main+0xf0>
    80004240:	f35ff06f          	j	80004174 <vprintfmt+0x3ac>
    80004244:	00000793          	li	a5,0
    80004248:	f09ff06f          	j	80004150 <vprintfmt+0x388>

000000008000424c <sprintf_putch.2790>:
    8000424c:	0005b783          	ld	a5,0(a1)
    80004250:	00a78023          	sb	a0,0(a5)
    80004254:	0005b783          	ld	a5,0(a1)
    80004258:	00178793          	addi	a5,a5,1
    8000425c:	00f5b023          	sd	a5,0(a1)
    80004260:	00008067          	ret

0000000080004264 <tohost_exit>:
    80004264:	00151793          	slli	a5,a0,0x1
    80004268:	0017e793          	ori	a5,a5,1
    8000426c:	ffffd717          	auipc	a4,0xffffd
    80004270:	d8f73a23          	sd	a5,-620(a4) # 80001000 <tohost>
    80004274:	0000006f          	j	80004274 <tohost_exit+0x10>

0000000080004278 <handle_trap>:
    80004278:	ff010113          	addi	sp,sp,-16
    8000427c:	00813023          	sd	s0,0(sp)
    80004280:	00113423          	sd	ra,8(sp)
    80004284:	00b00713          	li	a4,11
    80004288:	01010413          	addi	s0,sp,16
    8000428c:	f8010113          	addi	sp,sp,-128
    80004290:	00e50c63          	beq	a0,a4,800042a8 <handle_trap+0x30>
    80004294:	000017b7          	lui	a5,0x1
    80004298:	a7378793          	addi	a5,a5,-1421 # a73 <_tbss_end+0x9ef>
    8000429c:	ffffd717          	auipc	a4,0xffffd
    800042a0:	d6f73223          	sd	a5,-668(a4) # 80001000 <tohost>
    800042a4:	0000006f          	j	800042a4 <handle_trap+0x2c>
    800042a8:	08863703          	ld	a4,136(a2)
    800042ac:	05d00693          	li	a3,93
    800042b0:	0ed70863          	beq	a4,a3,800043a0 <handle_trap+0x128>
    800042b4:	4d200693          	li	a3,1234
    800042b8:	08d71a63          	bne	a4,a3,8000434c <handle_trap+0xd4>
    800042bc:	05062703          	lw	a4,80(a2)
    800042c0:	b00027f3          	csrr	a5,mcycle
    800042c4:	02071063          	bnez	a4,800042e4 <handle_trap+0x6c>
    800042c8:	00001697          	auipc	a3,0x1
    800042cc:	8306b683          	ld	a3,-2000(a3) # 80004af8 <counters>
    800042d0:	40d787b3          	sub	a5,a5,a3
    800042d4:	00000697          	auipc	a3,0x0
    800042d8:	68468693          	addi	a3,a3,1668 # 80004958 <main+0xf8>
    800042dc:	00001517          	auipc	a0,0x1
    800042e0:	82d53623          	sd	a3,-2004(a0) # 80004b08 <counter_names>
    800042e4:	00001697          	auipc	a3,0x1
    800042e8:	80f6ba23          	sd	a5,-2028(a3) # 80004af8 <counters>
    800042ec:	b02027f3          	csrr	a5,minstret
    800042f0:	02071063          	bnez	a4,80004310 <handle_trap+0x98>
    800042f4:	00001717          	auipc	a4,0x1
    800042f8:	80c73703          	ld	a4,-2036(a4) # 80004b00 <counters+0x8>
    800042fc:	40e787b3          	sub	a5,a5,a4
    80004300:	00000717          	auipc	a4,0x0
    80004304:	66070713          	addi	a4,a4,1632 # 80004960 <main+0x100>
    80004308:	00001697          	auipc	a3,0x1
    8000430c:	80e6b423          	sd	a4,-2040(a3) # 80004b10 <counter_names+0x8>
    80004310:	00000717          	auipc	a4,0x0
    80004314:	7ef73823          	sd	a5,2032(a4) # 80004b00 <counters+0x8>
    80004318:	04063823          	sd	zero,80(a2)
    8000431c:	0005d783          	lhu	a5,0(a1)
    80004320:	00300713          	li	a4,3
    80004324:	00400513          	li	a0,4
    80004328:	00e7f7b3          	and	a5,a5,a4
    8000432c:	00e78463          	beq	a5,a4,80004334 <handle_trap+0xbc>
    80004330:	00200513          	li	a0,2
    80004334:	ff040113          	addi	sp,s0,-16
    80004338:	00813083          	ld	ra,8(sp)
    8000433c:	00b50533          	add	a0,a0,a1
    80004340:	00013403          	ld	s0,0(sp)
    80004344:	01010113          	addi	sp,sp,16
    80004348:	00008067          	ret
    8000434c:	05063503          	ld	a0,80(a2)
    80004350:	03f10793          	addi	a5,sp,63
    80004354:	fc07f793          	andi	a5,a5,-64
    80004358:	05863683          	ld	a3,88(a2)
    8000435c:	00e7b023          	sd	a4,0(a5)
    80004360:	06063703          	ld	a4,96(a2)
    80004364:	00a7b423          	sd	a0,8(a5)
    80004368:	00d7b823          	sd	a3,16(a5)
    8000436c:	00e7bc23          	sd	a4,24(a5)
    80004370:	0330000f          	fence	rw,rw
    80004374:	ffffd717          	auipc	a4,0xffffd
    80004378:	c8f73623          	sd	a5,-884(a4) # 80001000 <tohost>
    8000437c:	ffffd717          	auipc	a4,0xffffd
    80004380:	cc473703          	ld	a4,-828(a4) # 80001040 <fromhost>
    80004384:	fe070ce3          	beqz	a4,8000437c <handle_trap+0x104>
    80004388:	ffffd717          	auipc	a4,0xffffd
    8000438c:	ca073c23          	sd	zero,-840(a4) # 80001040 <fromhost>
    80004390:	0330000f          	fence	rw,rw
    80004394:	0007b783          	ld	a5,0(a5)
    80004398:	04f63823          	sd	a5,80(a2)
    8000439c:	f81ff06f          	j	8000431c <handle_trap+0xa4>
    800043a0:	05063503          	ld	a0,80(a2)
    800043a4:	ec1ff0ef          	jal	80004264 <tohost_exit>

00000000800043a8 <exit>:
    800043a8:	05d00893          	li	a7,93
    800043ac:	00000593          	li	a1,0
    800043b0:	00000613          	li	a2,0
    800043b4:	00000073          	ecall
    800043b8:	0000006f          	j	800043b8 <exit+0x10>

00000000800043bc <setStats>:
    800043bc:	4d200893          	li	a7,1234
    800043c0:	00000593          	li	a1,0
    800043c4:	00000613          	li	a2,0
    800043c8:	00000073          	ecall
    800043cc:	00008067          	ret

00000000800043d0 <printstr>:
    800043d0:	00054783          	lbu	a5,0(a0)
    800043d4:	00050593          	mv	a1,a0
    800043d8:	02078463          	beqz	a5,80004400 <printstr+0x30>
    800043dc:	00050613          	mv	a2,a0
    800043e0:	00160613          	addi	a2,a2,1
    800043e4:	00064783          	lbu	a5,0(a2)
    800043e8:	fe079ce3          	bnez	a5,800043e0 <printstr+0x10>
    800043ec:	40b60633          	sub	a2,a2,a1
    800043f0:	04000893          	li	a7,64
    800043f4:	00100513          	li	a0,1
    800043f8:	00000073          	ecall
    800043fc:	00008067          	ret
    80004400:	00000613          	li	a2,0
    80004404:	fedff06f          	j	800043f0 <printstr+0x20>
    80004408:	00050463          	beqz	a0,80004410 <printstr+0x40>
    8000440c:	0000006f          	j	8000440c <printstr+0x3c>
    80004410:	00008067          	ret

0000000080004414 <printhex>:
    80004414:	fe010113          	addi	sp,sp,-32
    80004418:	01710713          	addi	a4,sp,23
    8000441c:	00710893          	addi	a7,sp,7
    80004420:	00900813          	li	a6,9
    80004424:	05700593          	li	a1,87
    80004428:	03000313          	li	t1,48
    8000442c:	00f57693          	andi	a3,a0,15
    80004430:	00068613          	mv	a2,a3
    80004434:	00058793          	mv	a5,a1
    80004438:	00d86463          	bltu	a6,a3,80004440 <printhex+0x2c>
    8000443c:	00030793          	mv	a5,t1
    80004440:	00c787bb          	addw	a5,a5,a2
    80004444:	00f70023          	sb	a5,0(a4)
    80004448:	fff70713          	addi	a4,a4,-1
    8000444c:	00455513          	srli	a0,a0,0x4
    80004450:	fce89ee3          	bne	a7,a4,8000442c <printhex+0x18>
    80004454:	00814783          	lbu	a5,8(sp)
    80004458:	00010c23          	sb	zero,24(sp)
    8000445c:	00810593          	addi	a1,sp,8
    80004460:	02078663          	beqz	a5,8000448c <printhex+0x78>
    80004464:	00058613          	mv	a2,a1
    80004468:	00160613          	addi	a2,a2,1
    8000446c:	00064783          	lbu	a5,0(a2)
    80004470:	fe079ce3          	bnez	a5,80004468 <printhex+0x54>
    80004474:	40b60633          	sub	a2,a2,a1
    80004478:	04000893          	li	a7,64
    8000447c:	00100513          	li	a0,1
    80004480:	00000073          	ecall
    80004484:	02010113          	addi	sp,sp,32
    80004488:	00008067          	ret
    8000448c:	00000613          	li	a2,0
    80004490:	fe9ff06f          	j	80004478 <printhex+0x64>

0000000080004494 <printf>:
    80004494:	fa010113          	addi	sp,sp,-96
    80004498:	02810313          	addi	t1,sp,40
    8000449c:	02b13423          	sd	a1,40(sp)
    800044a0:	02c13823          	sd	a2,48(sp)
    800044a4:	02d13c23          	sd	a3,56(sp)
    800044a8:	00050613          	mv	a2,a0
    800044ac:	00030693          	mv	a3,t1
    800044b0:	00000517          	auipc	a0,0x0
    800044b4:	8c850513          	addi	a0,a0,-1848 # 80003d78 <putchar>
    800044b8:	00000593          	li	a1,0
    800044bc:	00113c23          	sd	ra,24(sp)
    800044c0:	04e13023          	sd	a4,64(sp)
    800044c4:	04f13423          	sd	a5,72(sp)
    800044c8:	05013823          	sd	a6,80(sp)
    800044cc:	05113c23          	sd	a7,88(sp)
    800044d0:	00613423          	sd	t1,8(sp)
    800044d4:	8f5ff0ef          	jal	80003dc8 <vprintfmt>
    800044d8:	01813083          	ld	ra,24(sp)
    800044dc:	00000513          	li	a0,0
    800044e0:	06010113          	addi	sp,sp,96
    800044e4:	00008067          	ret

00000000800044e8 <sprintf>:
    800044e8:	fa010113          	addi	sp,sp,-96
    800044ec:	03010313          	addi	t1,sp,48
    800044f0:	02813023          	sd	s0,32(sp)
    800044f4:	00a13423          	sd	a0,8(sp)
    800044f8:	02c13823          	sd	a2,48(sp)
    800044fc:	02d13c23          	sd	a3,56(sp)
    80004500:	00050413          	mv	s0,a0
    80004504:	00058613          	mv	a2,a1
    80004508:	00000517          	auipc	a0,0x0
    8000450c:	d4450513          	addi	a0,a0,-700 # 8000424c <sprintf_putch.2790>
    80004510:	00810593          	addi	a1,sp,8
    80004514:	00030693          	mv	a3,t1
    80004518:	02113423          	sd	ra,40(sp)
    8000451c:	04f13423          	sd	a5,72(sp)
    80004520:	04e13023          	sd	a4,64(sp)
    80004524:	05013823          	sd	a6,80(sp)
    80004528:	05113c23          	sd	a7,88(sp)
    8000452c:	00613c23          	sd	t1,24(sp)
    80004530:	899ff0ef          	jal	80003dc8 <vprintfmt>
    80004534:	00813783          	ld	a5,8(sp)
    80004538:	00078023          	sb	zero,0(a5)
    8000453c:	00813503          	ld	a0,8(sp)
    80004540:	02813083          	ld	ra,40(sp)
    80004544:	4085053b          	subw	a0,a0,s0
    80004548:	02013403          	ld	s0,32(sp)
    8000454c:	06010113          	addi	sp,sp,96
    80004550:	00008067          	ret

0000000080004554 <memcpy>:
    80004554:	00c5e7b3          	or	a5,a1,a2
    80004558:	00f567b3          	or	a5,a0,a5
    8000455c:	0077f793          	andi	a5,a5,7
    80004560:	00c50633          	add	a2,a0,a2
    80004564:	02078263          	beqz	a5,80004588 <memcpy+0x34>
    80004568:	00050793          	mv	a5,a0
    8000456c:	02c57e63          	bleu	a2,a0,800045a8 <memcpy+0x54>
    80004570:	00158593          	addi	a1,a1,1
    80004574:	fff5c703          	lbu	a4,-1(a1)
    80004578:	00178793          	addi	a5,a5,1
    8000457c:	fee78fa3          	sb	a4,-1(a5)
    80004580:	fec798e3          	bne	a5,a2,80004570 <memcpy+0x1c>
    80004584:	00008067          	ret
    80004588:	fec57ee3          	bleu	a2,a0,80004584 <memcpy+0x30>
    8000458c:	00050793          	mv	a5,a0
    80004590:	00858593          	addi	a1,a1,8
    80004594:	ff85b703          	ld	a4,-8(a1)
    80004598:	00878793          	addi	a5,a5,8
    8000459c:	fee7bc23          	sd	a4,-8(a5)
    800045a0:	fec7e8e3          	bltu	a5,a2,80004590 <memcpy+0x3c>
    800045a4:	00008067          	ret
    800045a8:	00008067          	ret

00000000800045ac <memset>:
    800045ac:	00c567b3          	or	a5,a0,a2
    800045b0:	0077f793          	andi	a5,a5,7
    800045b4:	02078263          	beqz	a5,800045d8 <memset+0x2c>
    800045b8:	00c50633          	add	a2,a0,a2
    800045bc:	0ff5f593          	andi	a1,a1,255
    800045c0:	00050793          	mv	a5,a0
    800045c4:	04c57663          	bleu	a2,a0,80004610 <memset+0x64>
    800045c8:	00178793          	addi	a5,a5,1
    800045cc:	feb78fa3          	sb	a1,-1(a5)
    800045d0:	fec79ce3          	bne	a5,a2,800045c8 <memset+0x1c>
    800045d4:	00008067          	ret
    800045d8:	0ff5f713          	andi	a4,a1,255
    800045dc:	00871593          	slli	a1,a4,0x8
    800045e0:	00b76733          	or	a4,a4,a1
    800045e4:	01071793          	slli	a5,a4,0x10
    800045e8:	00f76733          	or	a4,a4,a5
    800045ec:	02071793          	slli	a5,a4,0x20
    800045f0:	00c50633          	add	a2,a0,a2
    800045f4:	00f76733          	or	a4,a4,a5
    800045f8:	fcc57ee3          	bleu	a2,a0,800045d4 <memset+0x28>
    800045fc:	00050793          	mv	a5,a0
    80004600:	00878793          	addi	a5,a5,8
    80004604:	fee7bc23          	sd	a4,-8(a5)
    80004608:	fec7ece3          	bltu	a5,a2,80004600 <memset+0x54>
    8000460c:	00008067          	ret
    80004610:	00008067          	ret

0000000080004614 <_init>:
    80004614:	fb010113          	addi	sp,sp,-80
    80004618:	02913c23          	sd	s1,56(sp)
    8000461c:	03313423          	sd	s3,40(sp)
    80004620:	00020993          	mv	s3,tp
    80004624:	00020493          	mv	s1,tp
    80004628:	409984b3          	sub	s1,s3,s1
    8000462c:	04113423          	sd	ra,72(sp)
    80004630:	04813023          	sd	s0,64(sp)
    80004634:	03213823          	sd	s2,48(sp)
    80004638:	05010413          	addi	s0,sp,80
    8000463c:	03413023          	sd	s4,32(sp)
    80004640:	01513c23          	sd	s5,24(sp)
    80004644:	01613823          	sd	s6,16(sp)
    80004648:	01713423          	sd	s7,8(sp)
    8000464c:	00050a13          	mv	s4,a0
    80004650:	f8010113          	addi	sp,sp,-128
    80004654:	00020513          	mv	a0,tp
    80004658:	00058a93          	mv	s5,a1
    8000465c:	00048613          	mv	a2,s1
    80004660:	00000597          	auipc	a1,0x0
    80004664:	4e058593          	addi	a1,a1,1248 # 80004b40 <_end>
    80004668:	00020b13          	mv	s6,tp
    8000466c:	ee9ff0ef          	jal	80004554 <memcpy>
    80004670:	08420613          	addi	a2,tp,132 # 84 <_tbss_end>
    80004674:	41360633          	sub	a2,a2,s3
    80004678:	009b0533          	add	a0,s6,s1
    8000467c:	00000593          	li	a1,0
    80004680:	f2dff0ef          	jal	800045ac <memset>
    80004684:	000a8593          	mv	a1,s5
    80004688:	000a0513          	mv	a0,s4
    8000468c:	a2dfc0ef          	jal	800010b8 <thread_entry>
    80004690:	03f10913          	addi	s2,sp,63
    80004694:	00000593          	li	a1,0
    80004698:	00000513          	li	a0,0
    8000469c:	fc097913          	andi	s2,s2,-64
    800046a0:	00000997          	auipc	s3,0x0
    800046a4:	46898993          	addi	s3,s3,1128 # 80004b08 <counter_names>
    800046a8:	1b8000ef          	jal	80004860 <main>
    800046ac:	00050b13          	mv	s6,a0
    800046b0:	00000497          	auipc	s1,0x0
    800046b4:	44848493          	addi	s1,s1,1096 # 80004af8 <counters>
    800046b8:	00098a93          	mv	s5,s3
    800046bc:	00090a13          	mv	s4,s2
    800046c0:	00000b97          	auipc	s7,0x0
    800046c4:	2c8b8b93          	addi	s7,s7,712 # 80004988 <main+0x128>
    800046c8:	0004b683          	ld	a3,0(s1)
    800046cc:	04069463          	bnez	a3,80004714 <_init+0x100>
    800046d0:	00848493          	addi	s1,s1,8
    800046d4:	00898993          	addi	s3,s3,8
    800046d8:	ff5498e3          	bne	s1,s5,800046c8 <_init+0xb4>
    800046dc:	03490863          	beq	s2,s4,8000470c <_init+0xf8>
    800046e0:	00094783          	lbu	a5,0(s2)
    800046e4:	00090613          	mv	a2,s2
    800046e8:	00078863          	beqz	a5,800046f8 <_init+0xe4>
    800046ec:	00160613          	addi	a2,a2,1
    800046f0:	00064783          	lbu	a5,0(a2)
    800046f4:	fe079ce3          	bnez	a5,800046ec <_init+0xd8>
    800046f8:	04000893          	li	a7,64
    800046fc:	00100513          	li	a0,1
    80004700:	00090593          	mv	a1,s2
    80004704:	41260633          	sub	a2,a2,s2
    80004708:	00000073          	ecall
    8000470c:	000b0513          	mv	a0,s6
    80004710:	c99ff0ef          	jal	800043a8 <exit>
    80004714:	0009b603          	ld	a2,0(s3)
    80004718:	000a0513          	mv	a0,s4
    8000471c:	000b8593          	mv	a1,s7
    80004720:	dc9ff0ef          	jal	800044e8 <sprintf>
    80004724:	00aa0a33          	add	s4,s4,a0
    80004728:	fa9ff06f          	j	800046d0 <_init+0xbc>

000000008000472c <strlen>:
    8000472c:	00054783          	lbu	a5,0(a0)
    80004730:	00078e63          	beqz	a5,8000474c <strlen+0x20>
    80004734:	00050793          	mv	a5,a0
    80004738:	00178793          	addi	a5,a5,1
    8000473c:	0007c703          	lbu	a4,0(a5)
    80004740:	fe071ce3          	bnez	a4,80004738 <strlen+0xc>
    80004744:	40a78533          	sub	a0,a5,a0
    80004748:	00008067          	ret
    8000474c:	00000513          	li	a0,0
    80004750:	00008067          	ret

0000000080004754 <strnlen>:
    80004754:	02058863          	beqz	a1,80004784 <strnlen+0x30>
    80004758:	00054783          	lbu	a5,0(a0)
    8000475c:	02078463          	beqz	a5,80004784 <strnlen+0x30>
    80004760:	00b505b3          	add	a1,a0,a1
    80004764:	00050793          	mv	a5,a0
    80004768:	00c0006f          	j	80004774 <strnlen+0x20>
    8000476c:	0007c703          	lbu	a4,0(a5)
    80004770:	00070663          	beqz	a4,8000477c <strnlen+0x28>
    80004774:	00178793          	addi	a5,a5,1
    80004778:	feb79ae3          	bne	a5,a1,8000476c <strnlen+0x18>
    8000477c:	40a78533          	sub	a0,a5,a0
    80004780:	00008067          	ret
    80004784:	00000513          	li	a0,0
    80004788:	00008067          	ret

000000008000478c <strcmp>:
    8000478c:	00150513          	addi	a0,a0,1
    80004790:	fff54783          	lbu	a5,-1(a0)
    80004794:	00158593          	addi	a1,a1,1
    80004798:	fff5c703          	lbu	a4,-1(a1)
    8000479c:	00078863          	beqz	a5,800047ac <strcmp+0x20>
    800047a0:	fee786e3          	beq	a5,a4,8000478c <strcmp>
    800047a4:	40e7853b          	subw	a0,a5,a4
    800047a8:	00008067          	ret
    800047ac:	00000793          	li	a5,0
    800047b0:	ff5ff06f          	j	800047a4 <strcmp+0x18>

00000000800047b4 <strcpy>:
    800047b4:	00050793          	mv	a5,a0
    800047b8:	00158593          	addi	a1,a1,1
    800047bc:	fff5c703          	lbu	a4,-1(a1)
    800047c0:	00178793          	addi	a5,a5,1
    800047c4:	fee78fa3          	sb	a4,-1(a5)
    800047c8:	fe0718e3          	bnez	a4,800047b8 <strcpy+0x4>
    800047cc:	00008067          	ret

00000000800047d0 <atol>:
    800047d0:	00054703          	lbu	a4,0(a0)
    800047d4:	02000693          	li	a3,32
    800047d8:	00050793          	mv	a5,a0
    800047dc:	00d71a63          	bne	a4,a3,800047f0 <atol+0x20>
    800047e0:	00070693          	mv	a3,a4
    800047e4:	00178793          	addi	a5,a5,1
    800047e8:	0007c703          	lbu	a4,0(a5)
    800047ec:	fed70ce3          	beq	a4,a3,800047e4 <atol+0x14>
    800047f0:	fd57069b          	addiw	a3,a4,-43
    800047f4:	0fd6f693          	andi	a3,a3,253
    800047f8:	04068263          	beqz	a3,8000483c <atol+0x6c>
    800047fc:	0007c683          	lbu	a3,0(a5)
    80004800:	00000613          	li	a2,0
    80004804:	04068a63          	beqz	a3,80004858 <atol+0x88>
    80004808:	00000713          	li	a4,0
    8000480c:	00178793          	addi	a5,a5,1
    80004810:	00271513          	slli	a0,a4,0x2
    80004814:	fd06859b          	addiw	a1,a3,-48
    80004818:	0007c683          	lbu	a3,0(a5)
    8000481c:	00e50533          	add	a0,a0,a4
    80004820:	00151513          	slli	a0,a0,0x1
    80004824:	00a58733          	add	a4,a1,a0
    80004828:	fe0692e3          	bnez	a3,8000480c <atol+0x3c>
    8000482c:	00060463          	beqz	a2,80004834 <atol+0x64>
    80004830:	40e00733          	neg	a4,a4
    80004834:	00070513          	mv	a0,a4
    80004838:	00008067          	ret
    8000483c:	0017c683          	lbu	a3,1(a5)
    80004840:	fd37071b          	addiw	a4,a4,-45
    80004844:	00173613          	seqz	a2,a4
    80004848:	00178793          	addi	a5,a5,1
    8000484c:	fa069ee3          	bnez	a3,80004808 <atol+0x38>
    80004850:	00000713          	li	a4,0
    80004854:	fd9ff06f          	j	8000482c <atol+0x5c>
    80004858:	00000713          	li	a4,0
    8000485c:	fd9ff06f          	j	80004834 <atol+0x64>

Disassembly of section .text.startup:

0000000080004860 <main>:
    80004860:	00000617          	auipc	a2,0x0
    80004864:	11060613          	addi	a2,a2,272 # 80004970 <main+0x110>
    80004868:	00060793          	mv	a5,a2
    8000486c:	00178793          	addi	a5,a5,1
    80004870:	0007c703          	lbu	a4,0(a5)
    80004874:	fe071ce3          	bnez	a4,8000486c <main+0xc>
    80004878:	04000893          	li	a7,64
    8000487c:	00100513          	li	a0,1
    80004880:	00000597          	auipc	a1,0x0
    80004884:	0f058593          	addi	a1,a1,240 # 80004970 <main+0x110>
    80004888:	40c78633          	sub	a2,a5,a2
    8000488c:	00000073          	ecall
    80004890:	fff00513          	li	a0,-1
    80004894:	00008067          	ret
