
mt-matmul.riscv:     file format elf64-littleriscv


Disassembly of section .text:

0000000080001048 <barrier>:
    80001048:	0330000f          	fence	rw,rw
    8000104c:	00022683          	lw	a3,0(tp) # 0 <_tdata_begin>
    80001050:	00002717          	auipc	a4,0x2
    80001054:	cec70713          	addi	a4,a4,-788 # 80002d3c <count.2992>
    80001058:	00100613          	li	a2,1
    8000105c:	0016b693          	seqz	a3,a3
    80001060:	00d22023          	sw	a3,0(tp) # 0 <_tdata_begin>
    80001064:	06c726af          	amoadd.w.sc	a3,a2,(a4)
    80001068:	fff5051b          	addiw	a0,a0,-1
    8000106c:	00a68e63          	beq	a3,a0,80001088 <barrier+0x40>
    80001070:	00022703          	lw	a4,0(tp) # 0 <_tdata_begin>
    80001074:	00002797          	auipc	a5,0x2
    80001078:	cc47a783          	lw	a5,-828(a5) # 80002d38 <sense.2991>
    8000107c:	fee79ce3          	bne	a5,a4,80001074 <barrier+0x2c>
    80001080:	0330000f          	fence	rw,rw
    80001084:	00008067          	ret
    80001088:	00022783          	lw	a5,0(tp) # 0 <_tdata_begin>
    8000108c:	00002717          	auipc	a4,0x2
    80001090:	ca072823          	sw	zero,-848(a4) # 80002d3c <count.2992>
    80001094:	00002717          	auipc	a4,0x2
    80001098:	caf72223          	sw	a5,-860(a4) # 80002d38 <sense.2991>
    8000109c:	fe5ff06f          	j	80001080 <barrier+0x38>

00000000800010a0 <thread_entry>:
    800010a0:	fd010113          	addi	sp,sp,-48
    800010a4:	02813023          	sd	s0,32(sp)
    800010a8:	00913c23          	sd	s1,24(sp)
    800010ac:	02113423          	sd	ra,40(sp)
    800010b0:	01213823          	sd	s2,16(sp)
    800010b4:	01313423          	sd	s3,8(sp)
    800010b8:	00050413          	mv	s0,a0
    800010bc:	00058493          	mv	s1,a1
    800010c0:	b00029f3          	csrr	s3,mcycle
    800010c4:	b0202973          	csrr	s2,minstret
    800010c8:	00002797          	auipc	a5,0x2
    800010cc:	c7878793          	addi	a5,a5,-904 # 80002d40 <results_data.3012>
    800010d0:	00001717          	auipc	a4,0x1
    800010d4:	06870713          	addi	a4,a4,104 # 80002138 <input2_data>
    800010d8:	00001697          	auipc	a3,0x1
    800010dc:	46068693          	addi	a3,a3,1120 # 80002538 <input1_data>
    800010e0:	01000613          	li	a2,16
    800010e4:	00048593          	mv	a1,s1
    800010e8:	00040513          	mv	a0,s0
    800010ec:	0ac000ef          	jal	80001198 <matmul>
    800010f0:	00048513          	mv	a0,s1
    800010f4:	f55ff0ef          	jal	80001048 <barrier>
    800010f8:	b00027f3          	csrr	a5,mcycle
    800010fc:	b02026f3          	csrr	a3,minstret
    80001100:	04040a63          	beqz	s0,80001154 <thread_entry+0xb4>
    80001104:	00002717          	auipc	a4,0x2
    80001108:	c3c70713          	addi	a4,a4,-964 # 80002d40 <results_data.3012>
    8000110c:	00002797          	auipc	a5,0x2
    80001110:	82c78793          	addi	a5,a5,-2004 # 80002938 <verify_data>
    80001114:	00000513          	li	a0,0
    80001118:	10000893          	li	a7,256
    8000111c:	00072603          	lw	a2,0(a4)
    80001120:	0007a683          	lw	a3,0(a5)
    80001124:	00472803          	lw	a6,4(a4)
    80001128:	0047a583          	lw	a1,4(a5)
    8000112c:	02d61063          	bne	a2,a3,8000114c <thread_entry+0xac>
    80001130:	0025051b          	addiw	a0,a0,2
    80001134:	00b81a63          	bne	a6,a1,80001148 <thread_entry+0xa8>
    80001138:	00870713          	addi	a4,a4,8
    8000113c:	00878793          	addi	a5,a5,8
    80001140:	fd151ee3          	bne	a0,a7,8000111c <thread_entry+0x7c>
    80001144:	00000513          	li	a0,0
    80001148:	0d9000ef          	jal	80001a20 <exit>
    8000114c:	0015051b          	addiw	a0,a0,1
    80001150:	ff9ff06f          	j	80001148 <thread_entry+0xa8>
    80001154:	413787b3          	sub	a5,a5,s3
    80001158:	00a00713          	li	a4,10
    8000115c:	02e78333          	mul	t1,a5,a4
    80001160:	41268933          	sub	s2,a3,s2
    80001164:	00078613          	mv	a2,a5
    80001168:	00c7d693          	srli	a3,a5,0xc
    8000116c:	00001597          	auipc	a1,0x1
    80001170:	da458593          	addi	a1,a1,-604 # 80001f10 <main+0x38>
    80001174:	00001517          	auipc	a0,0x1
    80001178:	dec50513          	addi	a0,a0,-532 # 80001f60 <main+0x88>
    8000117c:	03235833          	divu	a6,t1,s2
    80001180:	00c35313          	srli	t1,t1,0xc
    80001184:	02e87833          	remu	a6,a6,a4
    80001188:	0327d7b3          	divu	a5,a5,s2
    8000118c:	02e37733          	remu	a4,t1,a4
    80001190:	17d000ef          	jal	80001b0c <printf>
    80001194:	f71ff06f          	j	80001104 <thread_entry+0x64>

0000000080001198 <matmul>:
    80001198:	02b655b3          	divu	a1,a2,a1
    8000119c:	fd010113          	addi	sp,sp,-48
    800011a0:	01213c23          	sd	s2,24(sp)
    800011a4:	02813423          	sd	s0,40(sp)
    800011a8:	02913023          	sd	s1,32(sp)
    800011ac:	01313823          	sd	s3,16(sp)
    800011b0:	01413423          	sd	s4,8(sp)
    800011b4:	02a58933          	mul	s2,a1,a0
    800011b8:	20060e63          	beqz	a2,800013d4 <matmul+0x23c>
    800011bc:	00261313          	slli	t1,a2,0x2
    800011c0:	00070393          	mv	t2,a4
    800011c4:	00190713          	addi	a4,s2,1
    800011c8:	01258533          	add	a0,a1,s2
    800011cc:	00000493          	li	s1,0
    800011d0:	02690a33          	mul	s4,s2,t1
    800011d4:	02670733          	mul	a4,a4,t1
    800011d8:	01478433          	add	s0,a5,s4
    800011dc:	01468a33          	add	s4,a3,s4
    800011e0:	00e689b3          	add	s3,a3,a4
    800011e4:	1ea97063          	bleu	a0,s2,800013c4 <matmul+0x22c>
    800011e8:	00098e93          	mv	t4,s3
    800011ec:	000a0f13          	mv	t5,s4
    800011f0:	00040293          	mv	t0,s0
    800011f4:	00090f93          	mv	t6,s2
    800011f8:	41ee8833          	sub	a6,t4,t5
    800011fc:	000f2683          	lw	a3,0(t5)
    80001200:	0003a703          	lw	a4,0(t2)
    80001204:	ffc80813          	addi	a6,a6,-4
    80001208:	00285813          	srli	a6,a6,0x2
    8000120c:	004f0893          	addi	a7,t5,4
    80001210:	00787813          	andi	a6,a6,7
    80001214:	02e685bb          	mulw	a1,a3,a4
    80001218:	006387b3          	add	a5,t2,t1
    8000121c:	191e8863          	beq	t4,a7,800013ac <matmul+0x214>
    80001220:	0e080063          	beqz	a6,80001300 <matmul+0x168>
    80001224:	00100713          	li	a4,1
    80001228:	0ae80e63          	beq	a6,a4,800012e4 <matmul+0x14c>
    8000122c:	00200713          	li	a4,2
    80001230:	08e80e63          	beq	a6,a4,800012cc <matmul+0x134>
    80001234:	00300713          	li	a4,3
    80001238:	06e80e63          	beq	a6,a4,800012b4 <matmul+0x11c>
    8000123c:	00400713          	li	a4,4
    80001240:	04e80e63          	beq	a6,a4,8000129c <matmul+0x104>
    80001244:	00500713          	li	a4,5
    80001248:	02e80e63          	beq	a6,a4,80001284 <matmul+0xec>
    8000124c:	00600713          	li	a4,6
    80001250:	00e80e63          	beq	a6,a4,8000126c <matmul+0xd4>
    80001254:	0008a683          	lw	a3,0(a7)
    80001258:	0007a703          	lw	a4,0(a5)
    8000125c:	008f0893          	addi	a7,t5,8
    80001260:	006787b3          	add	a5,a5,t1
    80001264:	02e6883b          	mulw	a6,a3,a4
    80001268:	010585bb          	addw	a1,a1,a6
    8000126c:	0008a683          	lw	a3,0(a7)
    80001270:	0007a703          	lw	a4,0(a5)
    80001274:	00488893          	addi	a7,a7,4
    80001278:	006787b3          	add	a5,a5,t1
    8000127c:	02e6883b          	mulw	a6,a3,a4
    80001280:	010585bb          	addw	a1,a1,a6
    80001284:	0008a683          	lw	a3,0(a7)
    80001288:	0007a703          	lw	a4,0(a5)
    8000128c:	00488893          	addi	a7,a7,4
    80001290:	006787b3          	add	a5,a5,t1
    80001294:	02e6883b          	mulw	a6,a3,a4
    80001298:	010585bb          	addw	a1,a1,a6
    8000129c:	0008a683          	lw	a3,0(a7)
    800012a0:	0007a703          	lw	a4,0(a5)
    800012a4:	00488893          	addi	a7,a7,4
    800012a8:	006787b3          	add	a5,a5,t1
    800012ac:	02e6883b          	mulw	a6,a3,a4
    800012b0:	010585bb          	addw	a1,a1,a6
    800012b4:	0008a683          	lw	a3,0(a7)
    800012b8:	0007a703          	lw	a4,0(a5)
    800012bc:	00488893          	addi	a7,a7,4
    800012c0:	006787b3          	add	a5,a5,t1
    800012c4:	02e6883b          	mulw	a6,a3,a4
    800012c8:	010585bb          	addw	a1,a1,a6
    800012cc:	0008a683          	lw	a3,0(a7)
    800012d0:	0007a703          	lw	a4,0(a5)
    800012d4:	00488893          	addi	a7,a7,4
    800012d8:	006787b3          	add	a5,a5,t1
    800012dc:	02e6883b          	mulw	a6,a3,a4
    800012e0:	010585bb          	addw	a1,a1,a6
    800012e4:	0008a683          	lw	a3,0(a7)
    800012e8:	0007a703          	lw	a4,0(a5)
    800012ec:	00488893          	addi	a7,a7,4
    800012f0:	006787b3          	add	a5,a5,t1
    800012f4:	02e6883b          	mulw	a6,a3,a4
    800012f8:	010585bb          	addw	a1,a1,a6
    800012fc:	0b1e8863          	beq	t4,a7,800013ac <matmul+0x214>
    80001300:	0008a683          	lw	a3,0(a7)
    80001304:	0007a703          	lw	a4,0(a5)
    80001308:	006787b3          	add	a5,a5,t1
    8000130c:	00488e13          	addi	t3,a7,4
    80001310:	02e6883b          	mulw	a6,a3,a4
    80001314:	0048a683          	lw	a3,4(a7)
    80001318:	0007a703          	lw	a4,0(a5)
    8000131c:	006787b3          	add	a5,a5,t1
    80001320:	02088893          	addi	a7,a7,32
    80001324:	010585bb          	addw	a1,a1,a6
    80001328:	02e6883b          	mulw	a6,a3,a4
    8000132c:	fe88a683          	lw	a3,-24(a7)
    80001330:	0007a703          	lw	a4,0(a5)
    80001334:	006787b3          	add	a5,a5,t1
    80001338:	010585bb          	addw	a1,a1,a6
    8000133c:	02e6883b          	mulw	a6,a3,a4
    80001340:	0007a703          	lw	a4,0(a5)
    80001344:	008e2683          	lw	a3,8(t3)
    80001348:	006787b3          	add	a5,a5,t1
    8000134c:	010585bb          	addw	a1,a1,a6
    80001350:	02e6883b          	mulw	a6,a3,a4
    80001354:	0007a703          	lw	a4,0(a5)
    80001358:	00ce2683          	lw	a3,12(t3)
    8000135c:	006787b3          	add	a5,a5,t1
    80001360:	010585bb          	addw	a1,a1,a6
    80001364:	02e6883b          	mulw	a6,a3,a4
    80001368:	0007a703          	lw	a4,0(a5)
    8000136c:	010e2683          	lw	a3,16(t3)
    80001370:	006787b3          	add	a5,a5,t1
    80001374:	010585bb          	addw	a1,a1,a6
    80001378:	02e6883b          	mulw	a6,a3,a4
    8000137c:	0007a703          	lw	a4,0(a5)
    80001380:	014e2683          	lw	a3,20(t3)
    80001384:	006787b3          	add	a5,a5,t1
    80001388:	010585bb          	addw	a1,a1,a6
    8000138c:	02e6883b          	mulw	a6,a3,a4
    80001390:	0007a703          	lw	a4,0(a5)
    80001394:	018e2683          	lw	a3,24(t3)
    80001398:	006787b3          	add	a5,a5,t1
    8000139c:	010585bb          	addw	a1,a1,a6
    800013a0:	02e6883b          	mulw	a6,a3,a4
    800013a4:	010585bb          	addw	a1,a1,a6
    800013a8:	f51e9ce3          	bne	t4,a7,80001300 <matmul+0x168>
    800013ac:	00b2a023          	sw	a1,0(t0)
    800013b0:	001f8f93          	addi	t6,t6,1
    800013b4:	006282b3          	add	t0,t0,t1
    800013b8:	006f0f33          	add	t5,t5,t1
    800013bc:	006e8eb3          	add	t4,t4,t1
    800013c0:	e2af9ce3          	bne	t6,a0,800011f8 <matmul+0x60>
    800013c4:	00148493          	addi	s1,s1,1
    800013c8:	00438393          	addi	t2,t2,4
    800013cc:	00440413          	addi	s0,s0,4
    800013d0:	e0961ae3          	bne	a2,s1,800011e4 <matmul+0x4c>
    800013d4:	02813403          	ld	s0,40(sp)
    800013d8:	02013483          	ld	s1,32(sp)
    800013dc:	01813903          	ld	s2,24(sp)
    800013e0:	01013983          	ld	s3,16(sp)
    800013e4:	00813a03          	ld	s4,8(sp)
    800013e8:	03010113          	addi	sp,sp,48
    800013ec:	00008067          	ret

00000000800013f0 <putchar>:
    800013f0:	08022603          	lw	a2,128(tp) # 80 <buflen.2676>
    800013f4:	00060813          	mv	a6,a2
    800013f8:	04020793          	addi	a5,tp,64 # 40 <buf.2675>
    800013fc:	010787b3          	add	a5,a5,a6
    80001400:	0016061b          	addiw	a2,a2,1
    80001404:	00a78023          	sb	a0,0(a5)
    80001408:	08c22023          	sw	a2,128(tp) # 80 <buflen.2676>
    8000140c:	00a00793          	li	a5,10
    80001410:	00f50a63          	beq	a0,a5,80001424 <putchar+0x34>
    80001414:	04000793          	li	a5,64
    80001418:	00f60663          	beq	a2,a5,80001424 <putchar+0x34>
    8000141c:	00000513          	li	a0,0
    80001420:	00008067          	ret
    80001424:	04000893          	li	a7,64
    80001428:	00100513          	li	a0,1
    8000142c:	04020593          	addi	a1,tp,64 # 40 <buf.2675>
    80001430:	00000073          	ecall
    80001434:	08022023          	sw	zero,128(tp) # 80 <buflen.2676>
    80001438:	00000513          	li	a0,0
    8000143c:	00008067          	ret

0000000080001440 <vprintfmt>:
    80001440:	e8010113          	addi	sp,sp,-384
    80001444:	17213023          	sd	s2,352(sp)
    80001448:	15313c23          	sd	s3,344(sp)
    8000144c:	15413823          	sd	s4,336(sp)
    80001450:	15513423          	sd	s5,328(sp)
    80001454:	15613023          	sd	s6,320(sp)
    80001458:	13713c23          	sd	s7,312(sp)
    8000145c:	16113c23          	sd	ra,376(sp)
    80001460:	16813823          	sd	s0,368(sp)
    80001464:	16913423          	sd	s1,360(sp)
    80001468:	13813823          	sd	s8,304(sp)
    8000146c:	13913423          	sd	s9,296(sp)
    80001470:	13a13023          	sd	s10,288(sp)
    80001474:	11b13c23          	sd	s11,280(sp)
    80001478:	00050a13          	mv	s4,a0
    8000147c:	00058993          	mv	s3,a1
    80001480:	00060913          	mv	s2,a2
    80001484:	00d13423          	sd	a3,8(sp)
    80001488:	00001b97          	auipc	s7,0x1
    8000148c:	b58b8b93          	addi	s7,s7,-1192 # 80001fe0 <main+0x108>
    80001490:	03000a93          	li	s5,48
    80001494:	05700b13          	li	s6,87
    80001498:	00094503          	lbu	a0,0(s2)
    8000149c:	02500413          	li	s0,37
    800014a0:	00850e63          	beq	a0,s0,800014bc <vprintfmt+0x7c>
    800014a4:	06050663          	beqz	a0,80001510 <vprintfmt+0xd0>
    800014a8:	00098593          	mv	a1,s3
    800014ac:	00190913          	addi	s2,s2,1
    800014b0:	000a00e7          	jalr	s4
    800014b4:	00094503          	lbu	a0,0(s2)
    800014b8:	fe8516e3          	bne	a0,s0,800014a4 <vprintfmt+0x64>
    800014bc:	00194683          	lbu	a3,1(s2)
    800014c0:	00190493          	addi	s1,s2,1
    800014c4:	fff00413          	li	s0,-1
    800014c8:	00048713          	mv	a4,s1
    800014cc:	02000d13          	li	s10,32
    800014d0:	00040c93          	mv	s9,s0
    800014d4:	00000813          	li	a6,0
    800014d8:	05500593          	li	a1,85
    800014dc:	03000313          	li	t1,48
    800014e0:	00900513          	li	a0,9
    800014e4:	02d00893          	li	a7,45
    800014e8:	fdd6879b          	addiw	a5,a3,-35
    800014ec:	0ff7fe13          	andi	t3,a5,255
    800014f0:	00170913          	addi	s2,a4,1
    800014f4:	2bc5ee63          	bltu	a1,t3,800017b0 <vprintfmt+0x370>
    800014f8:	0ff7f793          	andi	a5,a5,255
    800014fc:	00279793          	slli	a5,a5,0x2
    80001500:	017787b3          	add	a5,a5,s7
    80001504:	0007a783          	lw	a5,0(a5)
    80001508:	017787b3          	add	a5,a5,s7
    8000150c:	00078067          	jr	a5
    80001510:	17813083          	ld	ra,376(sp)
    80001514:	17013403          	ld	s0,368(sp)
    80001518:	16813483          	ld	s1,360(sp)
    8000151c:	16013903          	ld	s2,352(sp)
    80001520:	15813983          	ld	s3,344(sp)
    80001524:	15013a03          	ld	s4,336(sp)
    80001528:	14813a83          	ld	s5,328(sp)
    8000152c:	14013b03          	ld	s6,320(sp)
    80001530:	13813b83          	ld	s7,312(sp)
    80001534:	13013c03          	ld	s8,304(sp)
    80001538:	12813c83          	ld	s9,296(sp)
    8000153c:	12013d03          	ld	s10,288(sp)
    80001540:	11813d83          	ld	s11,280(sp)
    80001544:	18010113          	addi	sp,sp,384
    80001548:	00008067          	ret
    8000154c:	000cd463          	bgez	s9,80001554 <vprintfmt+0x114>
    80001550:	00000c93          	li	s9,0
    80001554:	00174683          	lbu	a3,1(a4)
    80001558:	00090713          	mv	a4,s2
    8000155c:	f8dff06f          	j	800014e8 <vprintfmt+0xa8>
    80001560:	00800d93          	li	s11,8
    80001564:	00100793          	li	a5,1
    80001568:	1d07c663          	blt	a5,a6,80001734 <vprintfmt+0x2f4>
    8000156c:	1c081463          	bnez	a6,80001734 <vprintfmt+0x2f4>
    80001570:	00813783          	ld	a5,8(sp)
    80001574:	0007e483          	lwu	s1,0(a5)
    80001578:	00878793          	addi	a5,a5,8
    8000157c:	00f13423          	sd	a5,8(sp)
    80001580:	03b4f7b3          	remu	a5,s1,s11
    80001584:	01410713          	addi	a4,sp,20
    80001588:	00100413          	li	s0,1
    8000158c:	00f12823          	sw	a5,16(sp)
    80001590:	01b4f663          	bleu	s11,s1,8000159c <vprintfmt+0x15c>
    80001594:	3000006f          	j	80001894 <vprintfmt+0x454>
    80001598:	000c0413          	mv	s0,s8
    8000159c:	03b4d4b3          	divu	s1,s1,s11
    800015a0:	00470713          	addi	a4,a4,4
    800015a4:	00140c1b          	addiw	s8,s0,1
    800015a8:	03b4f7b3          	remu	a5,s1,s11
    800015ac:	fef72e23          	sw	a5,-4(a4)
    800015b0:	ffb4f4e3          	bleu	s11,s1,80001598 <vprintfmt+0x158>
    800015b4:	fffc849b          	addiw	s1,s9,-1
    800015b8:	039c5063          	ble	s9,s8,800015d8 <vprintfmt+0x198>
    800015bc:	00098593          	mv	a1,s3
    800015c0:	000d0513          	mv	a0,s10
    800015c4:	fff4849b          	addiw	s1,s1,-1
    800015c8:	000a00e7          	jalr	s4
    800015cc:	0014879b          	addiw	a5,s1,1
    800015d0:	fefc46e3          	blt	s8,a5,800015bc <vprintfmt+0x17c>
    800015d4:	ed8052e3          	blez	s8,80001498 <vprintfmt+0x58>
    800015d8:	00241793          	slli	a5,s0,0x2
    800015dc:	11010713          	addi	a4,sp,272
    800015e0:	00f707b3          	add	a5,a4,a5
    800015e4:	f007a783          	lw	a5,-256(a5)
    800015e8:	fff4049b          	addiw	s1,s0,-1
    800015ec:	00249493          	slli	s1,s1,0x2
    800015f0:	01010713          	addi	a4,sp,16
    800015f4:	009704b3          	add	s1,a4,s1
    800015f8:	00900d13          	li	s10,9
    800015fc:	0100006f          	j	8000160c <vprintfmt+0x1cc>
    80001600:	0004a783          	lw	a5,0(s1)
    80001604:	fff4041b          	addiw	s0,s0,-1
    80001608:	ffc48493          	addi	s1,s1,-4
    8000160c:	000a8513          	mv	a0,s5
    80001610:	00fd7463          	bleu	a5,s10,80001618 <vprintfmt+0x1d8>
    80001614:	000b0513          	mv	a0,s6
    80001618:	00098593          	mv	a1,s3
    8000161c:	00f5053b          	addw	a0,a0,a5
    80001620:	000a00e7          	jalr	s4
    80001624:	fc804ee3          	bgtz	s0,80001600 <vprintfmt+0x1c0>
    80001628:	e71ff06f          	j	80001498 <vprintfmt+0x58>
    8000162c:	00098593          	mv	a1,s3
    80001630:	02500513          	li	a0,37
    80001634:	000a00e7          	jalr	s4
    80001638:	e61ff06f          	j	80001498 <vprintfmt+0x58>
    8000163c:	00813783          	ld	a5,8(sp)
    80001640:	00174683          	lbu	a3,1(a4)
    80001644:	00090713          	mv	a4,s2
    80001648:	0007a403          	lw	s0,0(a5)
    8000164c:	00878793          	addi	a5,a5,8
    80001650:	00f13423          	sd	a5,8(sp)
    80001654:	e80cdae3          	bgez	s9,800014e8 <vprintfmt+0xa8>
    80001658:	00040c93          	mv	s9,s0
    8000165c:	fff00413          	li	s0,-1
    80001660:	e89ff06f          	j	800014e8 <vprintfmt+0xa8>
    80001664:	00174683          	lbu	a3,1(a4)
    80001668:	00088d13          	mv	s10,a7
    8000166c:	00090713          	mv	a4,s2
    80001670:	e79ff06f          	j	800014e8 <vprintfmt+0xa8>
    80001674:	00174683          	lbu	a3,1(a4)
    80001678:	00030d13          	mv	s10,t1
    8000167c:	00090713          	mv	a4,s2
    80001680:	e69ff06f          	j	800014e8 <vprintfmt+0xa8>
    80001684:	00174783          	lbu	a5,1(a4)
    80001688:	fd06841b          	addiw	s0,a3,-48
    8000168c:	fd07871b          	addiw	a4,a5,-48
    80001690:	00078e13          	mv	t3,a5
    80001694:	1ee56a63          	bltu	a0,a4,80001888 <vprintfmt+0x448>
    80001698:	00090713          	mv	a4,s2
    8000169c:	00170713          	addi	a4,a4,1
    800016a0:	0024179b          	slliw	a5,s0,0x2
    800016a4:	00074683          	lbu	a3,0(a4)
    800016a8:	0087843b          	addw	s0,a5,s0
    800016ac:	0014141b          	slliw	s0,s0,0x1
    800016b0:	01c4043b          	addw	s0,s0,t3
    800016b4:	fd06879b          	addiw	a5,a3,-48
    800016b8:	fd04041b          	addiw	s0,s0,-48
    800016bc:	00068e13          	mv	t3,a3
    800016c0:	fcf57ee3          	bleu	a5,a0,8000169c <vprintfmt+0x25c>
    800016c4:	f91ff06f          	j	80001654 <vprintfmt+0x214>
    800016c8:	00813783          	ld	a5,8(sp)
    800016cc:	00098593          	mv	a1,s3
    800016d0:	0007a503          	lw	a0,0(a5)
    800016d4:	00878c13          	addi	s8,a5,8
    800016d8:	000a00e7          	jalr	s4
    800016dc:	01813423          	sd	s8,8(sp)
    800016e0:	db9ff06f          	j	80001498 <vprintfmt+0x58>
    800016e4:	00100793          	li	a5,1
    800016e8:	1507d863          	ble	a6,a5,80001838 <vprintfmt+0x3f8>
    800016ec:	00813783          	ld	a5,8(sp)
    800016f0:	0007b483          	ld	s1,0(a5)
    800016f4:	00878793          	addi	a5,a5,8
    800016f8:	00f13423          	sd	a5,8(sp)
    800016fc:	00a00d93          	li	s11,10
    80001700:	e804d0e3          	bgez	s1,80001580 <vprintfmt+0x140>
    80001704:	00098593          	mv	a1,s3
    80001708:	02d00513          	li	a0,45
    8000170c:	000a00e7          	jalr	s4
    80001710:	409004b3          	neg	s1,s1
    80001714:	e6dff06f          	j	80001580 <vprintfmt+0x140>
    80001718:	000a8513          	mv	a0,s5
    8000171c:	00098593          	mv	a1,s3
    80001720:	000a00e7          	jalr	s4
    80001724:	00098593          	mv	a1,s3
    80001728:	07800513          	li	a0,120
    8000172c:	000a00e7          	jalr	s4
    80001730:	01000d93          	li	s11,16
    80001734:	00813783          	ld	a5,8(sp)
    80001738:	0007b483          	ld	s1,0(a5)
    8000173c:	00878793          	addi	a5,a5,8
    80001740:	00f13423          	sd	a5,8(sp)
    80001744:	e3dff06f          	j	80001580 <vprintfmt+0x140>
    80001748:	00813783          	ld	a5,8(sp)
    8000174c:	0007b483          	ld	s1,0(a5)
    80001750:	00878c13          	addi	s8,a5,8
    80001754:	10048c63          	beqz	s1,8000186c <vprintfmt+0x42c>
    80001758:	09905663          	blez	s9,800017e4 <vprintfmt+0x3a4>
    8000175c:	02d00793          	li	a5,45
    80001760:	10fd0063          	beq	s10,a5,80001860 <vprintfmt+0x420>
    80001764:	14040c63          	beqz	s0,800018bc <vprintfmt+0x47c>
    80001768:	0004c783          	lbu	a5,0(s1)
    8000176c:	06078263          	beqz	a5,800017d0 <vprintfmt+0x390>
    80001770:	00148793          	addi	a5,s1,1
    80001774:	008485b3          	add	a1,s1,s0
    80001778:	04b78663          	beq	a5,a1,800017c4 <vprintfmt+0x384>
    8000177c:	00178713          	addi	a4,a5,1
    80001780:	fff74683          	lbu	a3,-1(a4)
    80001784:	04068063          	beqz	a3,800017c4 <vprintfmt+0x384>
    80001788:	00070793          	mv	a5,a4
    8000178c:	fedff06f          	j	80001778 <vprintfmt+0x338>
    80001790:	00174683          	lbu	a3,1(a4)
    80001794:	0018081b          	addiw	a6,a6,1
    80001798:	00090713          	mv	a4,s2
    8000179c:	d4dff06f          	j	800014e8 <vprintfmt+0xa8>
    800017a0:	00a00d93          	li	s11,10
    800017a4:	dc1ff06f          	j	80001564 <vprintfmt+0x124>
    800017a8:	01000d93          	li	s11,16
    800017ac:	db9ff06f          	j	80001564 <vprintfmt+0x124>
    800017b0:	00098593          	mv	a1,s3
    800017b4:	02500513          	li	a0,37
    800017b8:	000a00e7          	jalr	s4
    800017bc:	00048913          	mv	s2,s1
    800017c0:	cd9ff06f          	j	80001498 <vprintfmt+0x58>
    800017c4:	409787bb          	subw	a5,a5,s1
    800017c8:	40fc8cbb          	subw	s9,s9,a5
    800017cc:	01905c63          	blez	s9,800017e4 <vprintfmt+0x3a4>
    800017d0:	fffc8c9b          	addiw	s9,s9,-1
    800017d4:	00098593          	mv	a1,s3
    800017d8:	000d0513          	mv	a0,s10
    800017dc:	000a00e7          	jalr	s4
    800017e0:	fe0c98e3          	bnez	s9,800017d0 <vprintfmt+0x390>
    800017e4:	0004c503          	lbu	a0,0(s1)
    800017e8:	04050463          	beqz	a0,80001830 <vprintfmt+0x3f0>
    800017ec:	00044863          	bltz	s0,800017fc <vprintfmt+0x3bc>
    800017f0:	fff4041b          	addiw	s0,s0,-1
    800017f4:	fff00793          	li	a5,-1
    800017f8:	00f40e63          	beq	s0,a5,80001814 <vprintfmt+0x3d4>
    800017fc:	00098593          	mv	a1,s3
    80001800:	00148493          	addi	s1,s1,1
    80001804:	000a00e7          	jalr	s4
    80001808:	0004c503          	lbu	a0,0(s1)
    8000180c:	fffc8c9b          	addiw	s9,s9,-1
    80001810:	fc051ee3          	bnez	a0,800017ec <vprintfmt+0x3ac>
    80001814:	01905e63          	blez	s9,80001830 <vprintfmt+0x3f0>
    80001818:	02000413          	li	s0,32
    8000181c:	fffc8c9b          	addiw	s9,s9,-1
    80001820:	00098593          	mv	a1,s3
    80001824:	00040513          	mv	a0,s0
    80001828:	000a00e7          	jalr	s4
    8000182c:	fe0c98e3          	bnez	s9,8000181c <vprintfmt+0x3dc>
    80001830:	01813423          	sd	s8,8(sp)
    80001834:	c65ff06f          	j	80001498 <vprintfmt+0x58>
    80001838:	00813783          	ld	a5,8(sp)
    8000183c:	00080a63          	beqz	a6,80001850 <vprintfmt+0x410>
    80001840:	0007b483          	ld	s1,0(a5)
    80001844:	00878793          	addi	a5,a5,8
    80001848:	00f13423          	sd	a5,8(sp)
    8000184c:	eb1ff06f          	j	800016fc <vprintfmt+0x2bc>
    80001850:	0007a483          	lw	s1,0(a5)
    80001854:	00878793          	addi	a5,a5,8
    80001858:	00f13423          	sd	a5,8(sp)
    8000185c:	ea1ff06f          	j	800016fc <vprintfmt+0x2bc>
    80001860:	0004c503          	lbu	a0,0(s1)
    80001864:	f80514e3          	bnez	a0,800017ec <vprintfmt+0x3ac>
    80001868:	fb1ff06f          	j	80001818 <vprintfmt+0x3d8>
    8000186c:	05905063          	blez	s9,800018ac <vprintfmt+0x46c>
    80001870:	02d00793          	li	a5,45
    80001874:	00000497          	auipc	s1,0x0
    80001878:	72448493          	addi	s1,s1,1828 # 80001f98 <main+0xc0>
    8000187c:	02800513          	li	a0,40
    80001880:	eefd12e3          	bne	s10,a5,80001764 <vprintfmt+0x324>
    80001884:	f69ff06f          	j	800017ec <vprintfmt+0x3ac>
    80001888:	00078693          	mv	a3,a5
    8000188c:	00090713          	mv	a4,s2
    80001890:	dc5ff06f          	j	80001654 <vprintfmt+0x214>
    80001894:	00040693          	mv	a3,s0
    80001898:	fffc849b          	addiw	s1,s9,-1
    8000189c:	00000413          	li	s0,0
    800018a0:	00068c13          	mv	s8,a3
    800018a4:	d196cce3          	blt	a3,s9,800015bc <vprintfmt+0x17c>
    800018a8:	d41ff06f          	j	800015e8 <vprintfmt+0x1a8>
    800018ac:	02800513          	li	a0,40
    800018b0:	00000497          	auipc	s1,0x0
    800018b4:	6e848493          	addi	s1,s1,1768 # 80001f98 <main+0xc0>
    800018b8:	f35ff06f          	j	800017ec <vprintfmt+0x3ac>
    800018bc:	00000793          	li	a5,0
    800018c0:	f09ff06f          	j	800017c8 <vprintfmt+0x388>

00000000800018c4 <sprintf_putch.2790>:
    800018c4:	0005b783          	ld	a5,0(a1)
    800018c8:	00a78023          	sb	a0,0(a5)
    800018cc:	0005b783          	ld	a5,0(a1)
    800018d0:	00178793          	addi	a5,a5,1
    800018d4:	00f5b023          	sd	a5,0(a1)
    800018d8:	00008067          	ret

00000000800018dc <tohost_exit>:
    800018dc:	00151793          	slli	a5,a0,0x1
    800018e0:	0017e793          	ori	a5,a5,1
    800018e4:	fffff717          	auipc	a4,0xfffff
    800018e8:	70f73e23          	sd	a5,1820(a4) # 80001000 <tohost>
    800018ec:	0000006f          	j	800018ec <tohost_exit+0x10>

00000000800018f0 <handle_trap>:
    800018f0:	ff010113          	addi	sp,sp,-16
    800018f4:	00813023          	sd	s0,0(sp)
    800018f8:	00113423          	sd	ra,8(sp)
    800018fc:	00b00713          	li	a4,11
    80001900:	01010413          	addi	s0,sp,16
    80001904:	f8010113          	addi	sp,sp,-128
    80001908:	00e50c63          	beq	a0,a4,80001920 <handle_trap+0x30>
    8000190c:	000017b7          	lui	a5,0x1
    80001910:	a7378793          	addi	a5,a5,-1421 # a73 <_tbss_end+0x9ef>
    80001914:	fffff717          	auipc	a4,0xfffff
    80001918:	6ef73623          	sd	a5,1772(a4) # 80001000 <tohost>
    8000191c:	0000006f          	j	8000191c <handle_trap+0x2c>
    80001920:	08863703          	ld	a4,136(a2)
    80001924:	05d00693          	li	a3,93
    80001928:	0ed70863          	beq	a4,a3,80001a18 <handle_trap+0x128>
    8000192c:	4d200693          	li	a3,1234
    80001930:	08d71a63          	bne	a4,a3,800019c4 <handle_trap+0xd4>
    80001934:	05062703          	lw	a4,80(a2)
    80001938:	b00027f3          	csrr	a5,mcycle
    8000193c:	02071063          	bnez	a4,8000195c <handle_trap+0x6c>
    80001940:	00002697          	auipc	a3,0x2
    80001944:	8006b683          	ld	a3,-2048(a3) # 80003140 <counters>
    80001948:	40d787b3          	sub	a5,a5,a3
    8000194c:	00000697          	auipc	a3,0x0
    80001950:	65468693          	addi	a3,a3,1620 # 80001fa0 <main+0xc8>
    80001954:	00001517          	auipc	a0,0x1
    80001958:	7ed53e23          	sd	a3,2044(a0) # 80003150 <counter_names>
    8000195c:	00001697          	auipc	a3,0x1
    80001960:	7ef6b223          	sd	a5,2020(a3) # 80003140 <counters>
    80001964:	b02027f3          	csrr	a5,minstret
    80001968:	02071063          	bnez	a4,80001988 <handle_trap+0x98>
    8000196c:	00001717          	auipc	a4,0x1
    80001970:	7dc73703          	ld	a4,2012(a4) # 80003148 <counters+0x8>
    80001974:	40e787b3          	sub	a5,a5,a4
    80001978:	00000717          	auipc	a4,0x0
    8000197c:	63070713          	addi	a4,a4,1584 # 80001fa8 <main+0xd0>
    80001980:	00001697          	auipc	a3,0x1
    80001984:	7ce6bc23          	sd	a4,2008(a3) # 80003158 <counter_names+0x8>
    80001988:	00001717          	auipc	a4,0x1
    8000198c:	7cf73023          	sd	a5,1984(a4) # 80003148 <counters+0x8>
    80001990:	04063823          	sd	zero,80(a2)
    80001994:	0005d783          	lhu	a5,0(a1)
    80001998:	00300713          	li	a4,3
    8000199c:	00400513          	li	a0,4
    800019a0:	00e7f7b3          	and	a5,a5,a4
    800019a4:	00e78463          	beq	a5,a4,800019ac <handle_trap+0xbc>
    800019a8:	00200513          	li	a0,2
    800019ac:	ff040113          	addi	sp,s0,-16
    800019b0:	00813083          	ld	ra,8(sp)
    800019b4:	00b50533          	add	a0,a0,a1
    800019b8:	00013403          	ld	s0,0(sp)
    800019bc:	01010113          	addi	sp,sp,16
    800019c0:	00008067          	ret
    800019c4:	05063503          	ld	a0,80(a2)
    800019c8:	03f10793          	addi	a5,sp,63
    800019cc:	fc07f793          	andi	a5,a5,-64
    800019d0:	05863683          	ld	a3,88(a2)
    800019d4:	00e7b023          	sd	a4,0(a5)
    800019d8:	06063703          	ld	a4,96(a2)
    800019dc:	00a7b423          	sd	a0,8(a5)
    800019e0:	00d7b823          	sd	a3,16(a5)
    800019e4:	00e7bc23          	sd	a4,24(a5)
    800019e8:	0330000f          	fence	rw,rw
    800019ec:	fffff717          	auipc	a4,0xfffff
    800019f0:	60f73a23          	sd	a5,1556(a4) # 80001000 <tohost>
    800019f4:	fffff717          	auipc	a4,0xfffff
    800019f8:	64c73703          	ld	a4,1612(a4) # 80001040 <fromhost>
    800019fc:	fe070ce3          	beqz	a4,800019f4 <handle_trap+0x104>
    80001a00:	fffff717          	auipc	a4,0xfffff
    80001a04:	64073023          	sd	zero,1600(a4) # 80001040 <fromhost>
    80001a08:	0330000f          	fence	rw,rw
    80001a0c:	0007b783          	ld	a5,0(a5)
    80001a10:	04f63823          	sd	a5,80(a2)
    80001a14:	f81ff06f          	j	80001994 <handle_trap+0xa4>
    80001a18:	05063503          	ld	a0,80(a2)
    80001a1c:	ec1ff0ef          	jal	800018dc <tohost_exit>

0000000080001a20 <exit>:
    80001a20:	05d00893          	li	a7,93
    80001a24:	00000593          	li	a1,0
    80001a28:	00000613          	li	a2,0
    80001a2c:	00000073          	ecall
    80001a30:	0000006f          	j	80001a30 <exit+0x10>

0000000080001a34 <setStats>:
    80001a34:	4d200893          	li	a7,1234
    80001a38:	00000593          	li	a1,0
    80001a3c:	00000613          	li	a2,0
    80001a40:	00000073          	ecall
    80001a44:	00008067          	ret

0000000080001a48 <printstr>:
    80001a48:	00054783          	lbu	a5,0(a0)
    80001a4c:	00050593          	mv	a1,a0
    80001a50:	02078463          	beqz	a5,80001a78 <printstr+0x30>
    80001a54:	00050613          	mv	a2,a0
    80001a58:	00160613          	addi	a2,a2,1
    80001a5c:	00064783          	lbu	a5,0(a2)
    80001a60:	fe079ce3          	bnez	a5,80001a58 <printstr+0x10>
    80001a64:	40b60633          	sub	a2,a2,a1
    80001a68:	04000893          	li	a7,64
    80001a6c:	00100513          	li	a0,1
    80001a70:	00000073          	ecall
    80001a74:	00008067          	ret
    80001a78:	00000613          	li	a2,0
    80001a7c:	fedff06f          	j	80001a68 <printstr+0x20>
    80001a80:	00050463          	beqz	a0,80001a88 <printstr+0x40>
    80001a84:	0000006f          	j	80001a84 <printstr+0x3c>
    80001a88:	00008067          	ret

0000000080001a8c <printhex>:
    80001a8c:	fe010113          	addi	sp,sp,-32
    80001a90:	01710713          	addi	a4,sp,23
    80001a94:	00710893          	addi	a7,sp,7
    80001a98:	00900813          	li	a6,9
    80001a9c:	05700593          	li	a1,87
    80001aa0:	03000313          	li	t1,48
    80001aa4:	00f57693          	andi	a3,a0,15
    80001aa8:	00068613          	mv	a2,a3
    80001aac:	00058793          	mv	a5,a1
    80001ab0:	00d86463          	bltu	a6,a3,80001ab8 <printhex+0x2c>
    80001ab4:	00030793          	mv	a5,t1
    80001ab8:	00c787bb          	addw	a5,a5,a2
    80001abc:	00f70023          	sb	a5,0(a4)
    80001ac0:	fff70713          	addi	a4,a4,-1
    80001ac4:	00455513          	srli	a0,a0,0x4
    80001ac8:	fce89ee3          	bne	a7,a4,80001aa4 <printhex+0x18>
    80001acc:	00814783          	lbu	a5,8(sp)
    80001ad0:	00010c23          	sb	zero,24(sp)
    80001ad4:	00810593          	addi	a1,sp,8
    80001ad8:	02078663          	beqz	a5,80001b04 <printhex+0x78>
    80001adc:	00058613          	mv	a2,a1
    80001ae0:	00160613          	addi	a2,a2,1
    80001ae4:	00064783          	lbu	a5,0(a2)
    80001ae8:	fe079ce3          	bnez	a5,80001ae0 <printhex+0x54>
    80001aec:	40b60633          	sub	a2,a2,a1
    80001af0:	04000893          	li	a7,64
    80001af4:	00100513          	li	a0,1
    80001af8:	00000073          	ecall
    80001afc:	02010113          	addi	sp,sp,32
    80001b00:	00008067          	ret
    80001b04:	00000613          	li	a2,0
    80001b08:	fe9ff06f          	j	80001af0 <printhex+0x64>

0000000080001b0c <printf>:
    80001b0c:	fa010113          	addi	sp,sp,-96
    80001b10:	02810313          	addi	t1,sp,40
    80001b14:	02b13423          	sd	a1,40(sp)
    80001b18:	02c13823          	sd	a2,48(sp)
    80001b1c:	02d13c23          	sd	a3,56(sp)
    80001b20:	00050613          	mv	a2,a0
    80001b24:	00030693          	mv	a3,t1
    80001b28:	00000517          	auipc	a0,0x0
    80001b2c:	8c850513          	addi	a0,a0,-1848 # 800013f0 <putchar>
    80001b30:	00000593          	li	a1,0
    80001b34:	00113c23          	sd	ra,24(sp)
    80001b38:	04e13023          	sd	a4,64(sp)
    80001b3c:	04f13423          	sd	a5,72(sp)
    80001b40:	05013823          	sd	a6,80(sp)
    80001b44:	05113c23          	sd	a7,88(sp)
    80001b48:	00613423          	sd	t1,8(sp)
    80001b4c:	8f5ff0ef          	jal	80001440 <vprintfmt>
    80001b50:	01813083          	ld	ra,24(sp)
    80001b54:	00000513          	li	a0,0
    80001b58:	06010113          	addi	sp,sp,96
    80001b5c:	00008067          	ret

0000000080001b60 <sprintf>:
    80001b60:	fa010113          	addi	sp,sp,-96
    80001b64:	03010313          	addi	t1,sp,48
    80001b68:	02813023          	sd	s0,32(sp)
    80001b6c:	00a13423          	sd	a0,8(sp)
    80001b70:	02c13823          	sd	a2,48(sp)
    80001b74:	02d13c23          	sd	a3,56(sp)
    80001b78:	00050413          	mv	s0,a0
    80001b7c:	00058613          	mv	a2,a1
    80001b80:	00000517          	auipc	a0,0x0
    80001b84:	d4450513          	addi	a0,a0,-700 # 800018c4 <sprintf_putch.2790>
    80001b88:	00810593          	addi	a1,sp,8
    80001b8c:	00030693          	mv	a3,t1
    80001b90:	02113423          	sd	ra,40(sp)
    80001b94:	04f13423          	sd	a5,72(sp)
    80001b98:	04e13023          	sd	a4,64(sp)
    80001b9c:	05013823          	sd	a6,80(sp)
    80001ba0:	05113c23          	sd	a7,88(sp)
    80001ba4:	00613c23          	sd	t1,24(sp)
    80001ba8:	899ff0ef          	jal	80001440 <vprintfmt>
    80001bac:	00813783          	ld	a5,8(sp)
    80001bb0:	00078023          	sb	zero,0(a5)
    80001bb4:	00813503          	ld	a0,8(sp)
    80001bb8:	02813083          	ld	ra,40(sp)
    80001bbc:	4085053b          	subw	a0,a0,s0
    80001bc0:	02013403          	ld	s0,32(sp)
    80001bc4:	06010113          	addi	sp,sp,96
    80001bc8:	00008067          	ret

0000000080001bcc <memcpy>:
    80001bcc:	00c5e7b3          	or	a5,a1,a2
    80001bd0:	00f567b3          	or	a5,a0,a5
    80001bd4:	0077f793          	andi	a5,a5,7
    80001bd8:	00c50633          	add	a2,a0,a2
    80001bdc:	02078263          	beqz	a5,80001c00 <memcpy+0x34>
    80001be0:	00050793          	mv	a5,a0
    80001be4:	02c57e63          	bleu	a2,a0,80001c20 <memcpy+0x54>
    80001be8:	00158593          	addi	a1,a1,1
    80001bec:	fff5c703          	lbu	a4,-1(a1)
    80001bf0:	00178793          	addi	a5,a5,1
    80001bf4:	fee78fa3          	sb	a4,-1(a5)
    80001bf8:	fec798e3          	bne	a5,a2,80001be8 <memcpy+0x1c>
    80001bfc:	00008067          	ret
    80001c00:	fec57ee3          	bleu	a2,a0,80001bfc <memcpy+0x30>
    80001c04:	00050793          	mv	a5,a0
    80001c08:	00858593          	addi	a1,a1,8
    80001c0c:	ff85b703          	ld	a4,-8(a1)
    80001c10:	00878793          	addi	a5,a5,8
    80001c14:	fee7bc23          	sd	a4,-8(a5)
    80001c18:	fec7e8e3          	bltu	a5,a2,80001c08 <memcpy+0x3c>
    80001c1c:	00008067          	ret
    80001c20:	00008067          	ret

0000000080001c24 <memset>:
    80001c24:	00c567b3          	or	a5,a0,a2
    80001c28:	0077f793          	andi	a5,a5,7
    80001c2c:	02078263          	beqz	a5,80001c50 <memset+0x2c>
    80001c30:	00c50633          	add	a2,a0,a2
    80001c34:	0ff5f593          	andi	a1,a1,255
    80001c38:	00050793          	mv	a5,a0
    80001c3c:	04c57663          	bleu	a2,a0,80001c88 <memset+0x64>
    80001c40:	00178793          	addi	a5,a5,1
    80001c44:	feb78fa3          	sb	a1,-1(a5)
    80001c48:	fec79ce3          	bne	a5,a2,80001c40 <memset+0x1c>
    80001c4c:	00008067          	ret
    80001c50:	0ff5f713          	andi	a4,a1,255
    80001c54:	00871593          	slli	a1,a4,0x8
    80001c58:	00b76733          	or	a4,a4,a1
    80001c5c:	01071793          	slli	a5,a4,0x10
    80001c60:	00f76733          	or	a4,a4,a5
    80001c64:	02071793          	slli	a5,a4,0x20
    80001c68:	00c50633          	add	a2,a0,a2
    80001c6c:	00f76733          	or	a4,a4,a5
    80001c70:	fcc57ee3          	bleu	a2,a0,80001c4c <memset+0x28>
    80001c74:	00050793          	mv	a5,a0
    80001c78:	00878793          	addi	a5,a5,8
    80001c7c:	fee7bc23          	sd	a4,-8(a5)
    80001c80:	fec7ece3          	bltu	a5,a2,80001c78 <memset+0x54>
    80001c84:	00008067          	ret
    80001c88:	00008067          	ret

0000000080001c8c <_init>:
    80001c8c:	fb010113          	addi	sp,sp,-80
    80001c90:	02913c23          	sd	s1,56(sp)
    80001c94:	03313423          	sd	s3,40(sp)
    80001c98:	00020993          	mv	s3,tp
    80001c9c:	00020493          	mv	s1,tp
    80001ca0:	409984b3          	sub	s1,s3,s1
    80001ca4:	04113423          	sd	ra,72(sp)
    80001ca8:	04813023          	sd	s0,64(sp)
    80001cac:	03213823          	sd	s2,48(sp)
    80001cb0:	05010413          	addi	s0,sp,80
    80001cb4:	03413023          	sd	s4,32(sp)
    80001cb8:	01513c23          	sd	s5,24(sp)
    80001cbc:	01613823          	sd	s6,16(sp)
    80001cc0:	01713423          	sd	s7,8(sp)
    80001cc4:	00050a13          	mv	s4,a0
    80001cc8:	f8010113          	addi	sp,sp,-128
    80001ccc:	00020513          	mv	a0,tp
    80001cd0:	00058a93          	mv	s5,a1
    80001cd4:	00048613          	mv	a2,s1
    80001cd8:	00001597          	auipc	a1,0x1
    80001cdc:	4a858593          	addi	a1,a1,1192 # 80003180 <_end>
    80001ce0:	00020b13          	mv	s6,tp
    80001ce4:	ee9ff0ef          	jal	80001bcc <memcpy>
    80001ce8:	08420613          	addi	a2,tp,132 # 84 <_tbss_end>
    80001cec:	41360633          	sub	a2,a2,s3
    80001cf0:	009b0533          	add	a0,s6,s1
    80001cf4:	00000593          	li	a1,0
    80001cf8:	f2dff0ef          	jal	80001c24 <memset>
    80001cfc:	000a8593          	mv	a1,s5
    80001d00:	000a0513          	mv	a0,s4
    80001d04:	b9cff0ef          	jal	800010a0 <thread_entry>
    80001d08:	03f10913          	addi	s2,sp,63
    80001d0c:	00000593          	li	a1,0
    80001d10:	00000513          	li	a0,0
    80001d14:	fc097913          	andi	s2,s2,-64
    80001d18:	00001997          	auipc	s3,0x1
    80001d1c:	43898993          	addi	s3,s3,1080 # 80003150 <counter_names>
    80001d20:	1b8000ef          	jal	80001ed8 <main>
    80001d24:	00050b13          	mv	s6,a0
    80001d28:	00001497          	auipc	s1,0x1
    80001d2c:	41848493          	addi	s1,s1,1048 # 80003140 <counters>
    80001d30:	00098a93          	mv	s5,s3
    80001d34:	00090a13          	mv	s4,s2
    80001d38:	00000b97          	auipc	s7,0x0
    80001d3c:	298b8b93          	addi	s7,s7,664 # 80001fd0 <main+0xf8>
    80001d40:	0004b683          	ld	a3,0(s1)
    80001d44:	04069463          	bnez	a3,80001d8c <_init+0x100>
    80001d48:	00848493          	addi	s1,s1,8
    80001d4c:	00898993          	addi	s3,s3,8
    80001d50:	ff5498e3          	bne	s1,s5,80001d40 <_init+0xb4>
    80001d54:	03490863          	beq	s2,s4,80001d84 <_init+0xf8>
    80001d58:	00094783          	lbu	a5,0(s2)
    80001d5c:	00090613          	mv	a2,s2
    80001d60:	00078863          	beqz	a5,80001d70 <_init+0xe4>
    80001d64:	00160613          	addi	a2,a2,1
    80001d68:	00064783          	lbu	a5,0(a2)
    80001d6c:	fe079ce3          	bnez	a5,80001d64 <_init+0xd8>
    80001d70:	04000893          	li	a7,64
    80001d74:	00100513          	li	a0,1
    80001d78:	00090593          	mv	a1,s2
    80001d7c:	41260633          	sub	a2,a2,s2
    80001d80:	00000073          	ecall
    80001d84:	000b0513          	mv	a0,s6
    80001d88:	c99ff0ef          	jal	80001a20 <exit>
    80001d8c:	0009b603          	ld	a2,0(s3)
    80001d90:	000a0513          	mv	a0,s4
    80001d94:	000b8593          	mv	a1,s7
    80001d98:	dc9ff0ef          	jal	80001b60 <sprintf>
    80001d9c:	00aa0a33          	add	s4,s4,a0
    80001da0:	fa9ff06f          	j	80001d48 <_init+0xbc>

0000000080001da4 <strlen>:
    80001da4:	00054783          	lbu	a5,0(a0)
    80001da8:	00078e63          	beqz	a5,80001dc4 <strlen+0x20>
    80001dac:	00050793          	mv	a5,a0
    80001db0:	00178793          	addi	a5,a5,1
    80001db4:	0007c703          	lbu	a4,0(a5)
    80001db8:	fe071ce3          	bnez	a4,80001db0 <strlen+0xc>
    80001dbc:	40a78533          	sub	a0,a5,a0
    80001dc0:	00008067          	ret
    80001dc4:	00000513          	li	a0,0
    80001dc8:	00008067          	ret

0000000080001dcc <strnlen>:
    80001dcc:	02058863          	beqz	a1,80001dfc <strnlen+0x30>
    80001dd0:	00054783          	lbu	a5,0(a0)
    80001dd4:	02078463          	beqz	a5,80001dfc <strnlen+0x30>
    80001dd8:	00b505b3          	add	a1,a0,a1
    80001ddc:	00050793          	mv	a5,a0
    80001de0:	00c0006f          	j	80001dec <strnlen+0x20>
    80001de4:	0007c703          	lbu	a4,0(a5)
    80001de8:	00070663          	beqz	a4,80001df4 <strnlen+0x28>
    80001dec:	00178793          	addi	a5,a5,1
    80001df0:	feb79ae3          	bne	a5,a1,80001de4 <strnlen+0x18>
    80001df4:	40a78533          	sub	a0,a5,a0
    80001df8:	00008067          	ret
    80001dfc:	00000513          	li	a0,0
    80001e00:	00008067          	ret

0000000080001e04 <strcmp>:
    80001e04:	00150513          	addi	a0,a0,1
    80001e08:	fff54783          	lbu	a5,-1(a0)
    80001e0c:	00158593          	addi	a1,a1,1
    80001e10:	fff5c703          	lbu	a4,-1(a1)
    80001e14:	00078863          	beqz	a5,80001e24 <strcmp+0x20>
    80001e18:	fee786e3          	beq	a5,a4,80001e04 <strcmp>
    80001e1c:	40e7853b          	subw	a0,a5,a4
    80001e20:	00008067          	ret
    80001e24:	00000793          	li	a5,0
    80001e28:	ff5ff06f          	j	80001e1c <strcmp+0x18>

0000000080001e2c <strcpy>:
    80001e2c:	00050793          	mv	a5,a0
    80001e30:	00158593          	addi	a1,a1,1
    80001e34:	fff5c703          	lbu	a4,-1(a1)
    80001e38:	00178793          	addi	a5,a5,1
    80001e3c:	fee78fa3          	sb	a4,-1(a5)
    80001e40:	fe0718e3          	bnez	a4,80001e30 <strcpy+0x4>
    80001e44:	00008067          	ret

0000000080001e48 <atol>:
    80001e48:	00054703          	lbu	a4,0(a0)
    80001e4c:	02000693          	li	a3,32
    80001e50:	00050793          	mv	a5,a0
    80001e54:	00d71a63          	bne	a4,a3,80001e68 <atol+0x20>
    80001e58:	00070693          	mv	a3,a4
    80001e5c:	00178793          	addi	a5,a5,1
    80001e60:	0007c703          	lbu	a4,0(a5)
    80001e64:	fed70ce3          	beq	a4,a3,80001e5c <atol+0x14>
    80001e68:	fd57069b          	addiw	a3,a4,-43
    80001e6c:	0fd6f693          	andi	a3,a3,253
    80001e70:	04068263          	beqz	a3,80001eb4 <atol+0x6c>
    80001e74:	0007c683          	lbu	a3,0(a5)
    80001e78:	00000613          	li	a2,0
    80001e7c:	04068a63          	beqz	a3,80001ed0 <atol+0x88>
    80001e80:	00000713          	li	a4,0
    80001e84:	00178793          	addi	a5,a5,1
    80001e88:	00271513          	slli	a0,a4,0x2
    80001e8c:	fd06859b          	addiw	a1,a3,-48
    80001e90:	0007c683          	lbu	a3,0(a5)
    80001e94:	00e50533          	add	a0,a0,a4
    80001e98:	00151513          	slli	a0,a0,0x1
    80001e9c:	00a58733          	add	a4,a1,a0
    80001ea0:	fe0692e3          	bnez	a3,80001e84 <atol+0x3c>
    80001ea4:	00060463          	beqz	a2,80001eac <atol+0x64>
    80001ea8:	40e00733          	neg	a4,a4
    80001eac:	00070513          	mv	a0,a4
    80001eb0:	00008067          	ret
    80001eb4:	0017c683          	lbu	a3,1(a5)
    80001eb8:	fd37071b          	addiw	a4,a4,-45
    80001ebc:	00173613          	seqz	a2,a4
    80001ec0:	00178793          	addi	a5,a5,1
    80001ec4:	fa069ee3          	bnez	a3,80001e80 <atol+0x38>
    80001ec8:	00000713          	li	a4,0
    80001ecc:	fd9ff06f          	j	80001ea4 <atol+0x5c>
    80001ed0:	00000713          	li	a4,0
    80001ed4:	fd9ff06f          	j	80001eac <atol+0x64>

Disassembly of section .text.startup:

0000000080001ed8 <main>:
    80001ed8:	00000617          	auipc	a2,0x0
    80001edc:	0e060613          	addi	a2,a2,224 # 80001fb8 <main+0xe0>
    80001ee0:	00060793          	mv	a5,a2
    80001ee4:	00178793          	addi	a5,a5,1
    80001ee8:	0007c703          	lbu	a4,0(a5)
    80001eec:	fe071ce3          	bnez	a4,80001ee4 <main+0xc>
    80001ef0:	04000893          	li	a7,64
    80001ef4:	00100513          	li	a0,1
    80001ef8:	00000597          	auipc	a1,0x0
    80001efc:	0c058593          	addi	a1,a1,192 # 80001fb8 <main+0xe0>
    80001f00:	40c78633          	sub	a2,a5,a2
    80001f04:	00000073          	ecall
    80001f08:	fff00513          	li	a0,-1
    80001f0c:	00008067          	ret

Disassembly of section .data:

0000000080002138 <input2_data>:
    80002138:	0001                	nop
    8000213a:	0000                	unimp
    8000213c:	0001                	nop
    8000213e:	0000                	unimp
    80002140:	0000                	unimp
    80002142:	0000                	unimp
    80002144:	00000003          	lb	zero,0(zero) # 0 <_tdata_begin>
    80002148:	0001                	nop
    8000214a:	0000                	unimp
    8000214c:	0002                	0x2
    8000214e:	0000                	unimp
    80002150:	0000                	unimp
    80002152:	0000                	unimp
    80002154:	0000                	unimp
    80002156:	0000                	unimp
    80002158:	0000                	unimp
    8000215a:	0000                	unimp
    8000215c:	0000                	unimp
    8000215e:	0000                	unimp
    80002160:	0000                	unimp
    80002162:	0000                	unimp
    80002164:	0002                	0x2
    80002166:	0000                	unimp
    80002168:	0001                	nop
    8000216a:	0000                	unimp
    8000216c:	0002                	0x2
    8000216e:	0000                	unimp
    80002170:	00000003          	lb	zero,0(zero) # 0 <_tdata_begin>
    80002174:	0000                	unimp
    80002176:	0000                	unimp
    80002178:	0000                	unimp
    8000217a:	0000                	unimp
    8000217c:	00000003          	lb	zero,0(zero) # 0 <_tdata_begin>
    80002180:	00000003          	lb	zero,0(zero) # 0 <_tdata_begin>
    80002184:	0002                	0x2
    80002186:	0000                	unimp
    80002188:	0002                	0x2
    8000218a:	0000                	unimp
    8000218c:	0001                	nop
    8000218e:	0000                	unimp
    80002190:	0002                	0x2
    80002192:	0000                	unimp
    80002194:	00000003          	lb	zero,0(zero) # 0 <_tdata_begin>
    80002198:	00000003          	lb	zero,0(zero) # 0 <_tdata_begin>
    8000219c:	0000                	unimp
    8000219e:	0000                	unimp
    800021a0:	0002                	0x2
    800021a2:	0000                	unimp
    800021a4:	0002                	0x2
    800021a6:	0000                	unimp
    800021a8:	0001                	nop
    800021aa:	0000                	unimp
    800021ac:	0001                	nop
    800021ae:	0000                	unimp
    800021b0:	0002                	0x2
    800021b2:	0000                	unimp
    800021b4:	0002                	0x2
    800021b6:	0000                	unimp
    800021b8:	0000                	unimp
    800021ba:	0000                	unimp
    800021bc:	0002                	0x2
    800021be:	0000                	unimp
    800021c0:	0002                	0x2
    800021c2:	0000                	unimp
    800021c4:	0001                	nop
    800021c6:	0000                	unimp
    800021c8:	0002                	0x2
    800021ca:	0000                	unimp
    800021cc:	00000003          	lb	zero,0(zero) # 0 <_tdata_begin>
    800021d0:	0002                	0x2
    800021d2:	0000                	unimp
    800021d4:	0002                	0x2
    800021d6:	0000                	unimp
    800021d8:	00000003          	lb	zero,0(zero) # 0 <_tdata_begin>
    800021dc:	00000003          	lb	zero,0(zero) # 0 <_tdata_begin>
    800021e0:	0002                	0x2
    800021e2:	0000                	unimp
    800021e4:	0002                	0x2
    800021e6:	0000                	unimp
    800021e8:	0001                	nop
    800021ea:	0000                	unimp
    800021ec:	0001                	nop
    800021ee:	0000                	unimp
    800021f0:	0001                	nop
    800021f2:	0000                	unimp
    800021f4:	0001                	nop
    800021f6:	0000                	unimp
    800021f8:	0002                	0x2
    800021fa:	0000                	unimp
    800021fc:	0001                	nop
    800021fe:	0000                	unimp
    80002200:	0002                	0x2
    80002202:	0000                	unimp
    80002204:	0002                	0x2
    80002206:	0000                	unimp
    80002208:	00000003          	lb	zero,0(zero) # 0 <_tdata_begin>
    8000220c:	00000003          	lb	zero,0(zero) # 0 <_tdata_begin>
    80002210:	00000003          	lb	zero,0(zero) # 0 <_tdata_begin>
    80002214:	0000                	unimp
    80002216:	0000                	unimp
    80002218:	0000                	unimp
    8000221a:	0000                	unimp
    8000221c:	00000003          	lb	zero,0(zero) # 0 <_tdata_begin>
    80002220:	0002                	0x2
    80002222:	0000                	unimp
    80002224:	00000003          	lb	zero,0(zero) # 0 <_tdata_begin>
    80002228:	0002                	0x2
    8000222a:	0000                	unimp
    8000222c:	00000003          	lb	zero,0(zero) # 0 <_tdata_begin>
    80002230:	0001                	nop
    80002232:	0000                	unimp
    80002234:	0002                	0x2
    80002236:	0000                	unimp
    80002238:	0001                	nop
    8000223a:	0000                	unimp
    8000223c:	0001                	nop
    8000223e:	0000                	unimp
    80002240:	0002                	0x2
    80002242:	0000                	unimp
    80002244:	0002                	0x2
    80002246:	0000                	unimp
    80002248:	0000                	unimp
    8000224a:	0000                	unimp
    8000224c:	0001                	nop
    8000224e:	0000                	unimp
    80002250:	0000                	unimp
    80002252:	0000                	unimp
    80002254:	00000003          	lb	zero,0(zero) # 0 <_tdata_begin>
    80002258:	0002                	0x2
    8000225a:	0000                	unimp
    8000225c:	0001                	nop
    8000225e:	0000                	unimp
    80002260:	0001                	nop
    80002262:	0000                	unimp
    80002264:	0001                	nop
    80002266:	0000                	unimp
    80002268:	0002                	0x2
    8000226a:	0000                	unimp
    8000226c:	0000                	unimp
    8000226e:	0000                	unimp
    80002270:	0001                	nop
    80002272:	0000                	unimp
    80002274:	0002                	0x2
    80002276:	0000                	unimp
    80002278:	0002                	0x2
    8000227a:	0000                	unimp
    8000227c:	0000                	unimp
    8000227e:	0000                	unimp
    80002280:	0002                	0x2
    80002282:	0000                	unimp
    80002284:	0001                	nop
    80002286:	0000                	unimp
    80002288:	00000003          	lb	zero,0(zero) # 0 <_tdata_begin>
    8000228c:	00000003          	lb	zero,0(zero) # 0 <_tdata_begin>
    80002290:	0002                	0x2
    80002292:	0000                	unimp
    80002294:	00000003          	lb	zero,0(zero) # 0 <_tdata_begin>
    80002298:	0002                	0x2
    8000229a:	0000                	unimp
    8000229c:	0000                	unimp
    8000229e:	0000                	unimp
    800022a0:	00000003          	lb	zero,0(zero) # 0 <_tdata_begin>
    800022a4:	0001                	nop
    800022a6:	0000                	unimp
    800022a8:	00000003          	lb	zero,0(zero) # 0 <_tdata_begin>
    800022ac:	00000003          	lb	zero,0(zero) # 0 <_tdata_begin>
    800022b0:	0002                	0x2
    800022b2:	0000                	unimp
    800022b4:	0000                	unimp
    800022b6:	0000                	unimp
    800022b8:	0001                	nop
    800022ba:	0000                	unimp
    800022bc:	0000                	unimp
    800022be:	0000                	unimp
    800022c0:	0001                	nop
    800022c2:	0000                	unimp
    800022c4:	0001                	nop
    800022c6:	0000                	unimp
    800022c8:	0002                	0x2
    800022ca:	0000                	unimp
    800022cc:	0002                	0x2
    800022ce:	0000                	unimp
    800022d0:	0001                	nop
    800022d2:	0000                	unimp
    800022d4:	0001                	nop
    800022d6:	0000                	unimp
    800022d8:	0002                	0x2
    800022da:	0000                	unimp
    800022dc:	0002                	0x2
    800022de:	0000                	unimp
    800022e0:	0001                	nop
    800022e2:	0000                	unimp
    800022e4:	0002                	0x2
    800022e6:	0000                	unimp
    800022e8:	00000003          	lb	zero,0(zero) # 0 <_tdata_begin>
    800022ec:	00000003          	lb	zero,0(zero) # 0 <_tdata_begin>
    800022f0:	0001                	nop
    800022f2:	0000                	unimp
    800022f4:	00000003          	lb	zero,0(zero) # 0 <_tdata_begin>
    800022f8:	0002                	0x2
    800022fa:	0000                	unimp
    800022fc:	0002                	0x2
    800022fe:	0000                	unimp
    80002300:	0002                	0x2
    80002302:	0000                	unimp
    80002304:	00000003          	lb	zero,0(zero) # 0 <_tdata_begin>
    80002308:	00000003          	lb	zero,0(zero) # 0 <_tdata_begin>
    8000230c:	0001                	nop
    8000230e:	0000                	unimp
    80002310:	0000                	unimp
    80002312:	0000                	unimp
    80002314:	0002                	0x2
    80002316:	0000                	unimp
    80002318:	0001                	nop
    8000231a:	0000                	unimp
    8000231c:	0000                	unimp
    8000231e:	0000                	unimp
    80002320:	0000                	unimp
    80002322:	0000                	unimp
    80002324:	0000                	unimp
    80002326:	0000                	unimp
    80002328:	0001                	nop
    8000232a:	0000                	unimp
    8000232c:	0001                	nop
    8000232e:	0000                	unimp
    80002330:	0002                	0x2
    80002332:	0000                	unimp
    80002334:	0000                	unimp
    80002336:	0000                	unimp
    80002338:	00000003          	lb	zero,0(zero) # 0 <_tdata_begin>
    8000233c:	0002                	0x2
    8000233e:	0000                	unimp
    80002340:	00000003          	lb	zero,0(zero) # 0 <_tdata_begin>
    80002344:	00000003          	lb	zero,0(zero) # 0 <_tdata_begin>
    80002348:	0000                	unimp
    8000234a:	0000                	unimp
    8000234c:	0002                	0x2
    8000234e:	0000                	unimp
    80002350:	00000003          	lb	zero,0(zero) # 0 <_tdata_begin>
    80002354:	0001                	nop
    80002356:	0000                	unimp
    80002358:	0000                	unimp
    8000235a:	0000                	unimp
    8000235c:	0000                	unimp
    8000235e:	0000                	unimp
    80002360:	0002                	0x2
    80002362:	0000                	unimp
    80002364:	0001                	nop
    80002366:	0000                	unimp
    80002368:	0002                	0x2
    8000236a:	0000                	unimp
    8000236c:	0000                	unimp
    8000236e:	0000                	unimp
    80002370:	0002                	0x2
    80002372:	0000                	unimp
    80002374:	0001                	nop
    80002376:	0000                	unimp
    80002378:	0001                	nop
    8000237a:	0000                	unimp
    8000237c:	0002                	0x2
    8000237e:	0000                	unimp
    80002380:	00000003          	lb	zero,0(zero) # 0 <_tdata_begin>
    80002384:	0001                	nop
    80002386:	0000                	unimp
    80002388:	00000003          	lb	zero,0(zero) # 0 <_tdata_begin>
    8000238c:	0002                	0x2
    8000238e:	0000                	unimp
    80002390:	0001                	nop
    80002392:	0000                	unimp
    80002394:	0000                	unimp
    80002396:	0000                	unimp
    80002398:	0000                	unimp
    8000239a:	0000                	unimp
    8000239c:	0000                	unimp
    8000239e:	0000                	unimp
    800023a0:	0000                	unimp
    800023a2:	0000                	unimp
    800023a4:	0000                	unimp
    800023a6:	0000                	unimp
    800023a8:	0002                	0x2
    800023aa:	0000                	unimp
    800023ac:	0002                	0x2
    800023ae:	0000                	unimp
    800023b0:	0000                	unimp
    800023b2:	0000                	unimp
    800023b4:	0002                	0x2
    800023b6:	0000                	unimp
    800023b8:	0001                	nop
    800023ba:	0000                	unimp
    800023bc:	0002                	0x2
    800023be:	0000                	unimp
    800023c0:	0000                	unimp
    800023c2:	0000                	unimp
    800023c4:	00000003          	lb	zero,0(zero) # 0 <_tdata_begin>
    800023c8:	0002                	0x2
    800023ca:	0000                	unimp
    800023cc:	0002                	0x2
    800023ce:	0000                	unimp
    800023d0:	0000                	unimp
    800023d2:	0000                	unimp
    800023d4:	0000                	unimp
    800023d6:	0000                	unimp
    800023d8:	00000003          	lb	zero,0(zero) # 0 <_tdata_begin>
    800023dc:	0002                	0x2
    800023de:	0000                	unimp
    800023e0:	0001                	nop
    800023e2:	0000                	unimp
    800023e4:	0001                	nop
    800023e6:	0000                	unimp
    800023e8:	00000003          	lb	zero,0(zero) # 0 <_tdata_begin>
    800023ec:	0000                	unimp
    800023ee:	0000                	unimp
    800023f0:	0002                	0x2
    800023f2:	0000                	unimp
    800023f4:	0000                	unimp
    800023f6:	0000                	unimp
    800023f8:	0000                	unimp
    800023fa:	0000                	unimp
    800023fc:	0001                	nop
    800023fe:	0000                	unimp
    80002400:	0000                	unimp
    80002402:	0000                	unimp
    80002404:	0002                	0x2
    80002406:	0000                	unimp
    80002408:	00000003          	lb	zero,0(zero) # 0 <_tdata_begin>
    8000240c:	00000003          	lb	zero,0(zero) # 0 <_tdata_begin>
    80002410:	0001                	nop
    80002412:	0000                	unimp
    80002414:	00000003          	lb	zero,0(zero) # 0 <_tdata_begin>
    80002418:	00000003          	lb	zero,0(zero) # 0 <_tdata_begin>
    8000241c:	0000                	unimp
    8000241e:	0000                	unimp
    80002420:	0000                	unimp
    80002422:	0000                	unimp
    80002424:	0002                	0x2
    80002426:	0000                	unimp
    80002428:	0002                	0x2
    8000242a:	0000                	unimp
    8000242c:	0000                	unimp
    8000242e:	0000                	unimp
    80002430:	0000                	unimp
    80002432:	0000                	unimp
    80002434:	0000                	unimp
    80002436:	0000                	unimp
    80002438:	0001                	nop
    8000243a:	0000                	unimp
    8000243c:	0000                	unimp
    8000243e:	0000                	unimp
    80002440:	0000                	unimp
    80002442:	0000                	unimp
    80002444:	0001                	nop
    80002446:	0000                	unimp
    80002448:	00000003          	lb	zero,0(zero) # 0 <_tdata_begin>
    8000244c:	0000                	unimp
    8000244e:	0000                	unimp
    80002450:	0002                	0x2
    80002452:	0000                	unimp
    80002454:	0001                	nop
    80002456:	0000                	unimp
    80002458:	00000003          	lb	zero,0(zero) # 0 <_tdata_begin>
    8000245c:	0002                	0x2
    8000245e:	0000                	unimp
    80002460:	0002                	0x2
    80002462:	0000                	unimp
    80002464:	0001                	nop
    80002466:	0000                	unimp
    80002468:	00000003          	lb	zero,0(zero) # 0 <_tdata_begin>
    8000246c:	0002                	0x2
    8000246e:	0000                	unimp
    80002470:	0000                	unimp
    80002472:	0000                	unimp
    80002474:	0001                	nop
    80002476:	0000                	unimp
    80002478:	0002                	0x2
    8000247a:	0000                	unimp
    8000247c:	0002                	0x2
    8000247e:	0000                	unimp
    80002480:	00000003          	lb	zero,0(zero) # 0 <_tdata_begin>
    80002484:	0002                	0x2
    80002486:	0000                	unimp
    80002488:	0001                	nop
    8000248a:	0000                	unimp
    8000248c:	0001                	nop
    8000248e:	0000                	unimp
    80002490:	0001                	nop
    80002492:	0000                	unimp
    80002494:	0001                	nop
    80002496:	0000                	unimp
    80002498:	00000003          	lb	zero,0(zero) # 0 <_tdata_begin>
    8000249c:	0000                	unimp
    8000249e:	0000                	unimp
    800024a0:	0001                	nop
    800024a2:	0000                	unimp
    800024a4:	00000003          	lb	zero,0(zero) # 0 <_tdata_begin>
    800024a8:	0002                	0x2
    800024aa:	0000                	unimp
    800024ac:	0002                	0x2
    800024ae:	0000                	unimp
    800024b0:	00000003          	lb	zero,0(zero) # 0 <_tdata_begin>
    800024b4:	0001                	nop
    800024b6:	0000                	unimp
    800024b8:	0001                	nop
    800024ba:	0000                	unimp
    800024bc:	0002                	0x2
    800024be:	0000                	unimp
    800024c0:	0000                	unimp
    800024c2:	0000                	unimp
    800024c4:	0002                	0x2
    800024c6:	0000                	unimp
    800024c8:	0001                	nop
    800024ca:	0000                	unimp
    800024cc:	0001                	nop
    800024ce:	0000                	unimp
    800024d0:	0002                	0x2
    800024d2:	0000                	unimp
    800024d4:	00000003          	lb	zero,0(zero) # 0 <_tdata_begin>
    800024d8:	0001                	nop
    800024da:	0000                	unimp
    800024dc:	0000                	unimp
    800024de:	0000                	unimp
    800024e0:	0001                	nop
    800024e2:	0000                	unimp
    800024e4:	0000                	unimp
    800024e6:	0000                	unimp
    800024e8:	0001                	nop
    800024ea:	0000                	unimp
    800024ec:	0001                	nop
    800024ee:	0000                	unimp
    800024f0:	0000                	unimp
    800024f2:	0000                	unimp
    800024f4:	0000                	unimp
    800024f6:	0000                	unimp
    800024f8:	0002                	0x2
    800024fa:	0000                	unimp
    800024fc:	0000                	unimp
    800024fe:	0000                	unimp
    80002500:	00000003          	lb	zero,0(zero) # 0 <_tdata_begin>
    80002504:	0000                	unimp
    80002506:	0000                	unimp
    80002508:	00000003          	lb	zero,0(zero) # 0 <_tdata_begin>
    8000250c:	0000                	unimp
    8000250e:	0000                	unimp
    80002510:	00000003          	lb	zero,0(zero) # 0 <_tdata_begin>
    80002514:	0002                	0x2
    80002516:	0000                	unimp
    80002518:	0002                	0x2
    8000251a:	0000                	unimp
    8000251c:	00000003          	lb	zero,0(zero) # 0 <_tdata_begin>
    80002520:	00000003          	lb	zero,0(zero) # 0 <_tdata_begin>
    80002524:	0002                	0x2
    80002526:	0000                	unimp
    80002528:	0001                	nop
    8000252a:	0000                	unimp
    8000252c:	0000                	unimp
    8000252e:	0000                	unimp
    80002530:	0002                	0x2
    80002532:	0000                	unimp
    80002534:	0002                	0x2
    80002536:	0000                	unimp

0000000080002538 <input1_data>:
    80002538:	0000                	unimp
    8000253a:	0000                	unimp
    8000253c:	00000003          	lb	zero,0(zero) # 0 <_tdata_begin>
    80002540:	0002                	0x2
    80002542:	0000                	unimp
    80002544:	0000                	unimp
    80002546:	0000                	unimp
    80002548:	00000003          	lb	zero,0(zero) # 0 <_tdata_begin>
    8000254c:	0001                	nop
    8000254e:	0000                	unimp
    80002550:	0000                	unimp
    80002552:	0000                	unimp
    80002554:	00000003          	lb	zero,0(zero) # 0 <_tdata_begin>
    80002558:	0002                	0x2
    8000255a:	0000                	unimp
    8000255c:	00000003          	lb	zero,0(zero) # 0 <_tdata_begin>
    80002560:	0002                	0x2
    80002562:	0000                	unimp
    80002564:	0000                	unimp
    80002566:	0000                	unimp
    80002568:	00000003          	lb	zero,0(zero) # 0 <_tdata_begin>
    8000256c:	00000003          	lb	zero,0(zero) # 0 <_tdata_begin>
    80002570:	0001                	nop
    80002572:	0000                	unimp
    80002574:	0002                	0x2
    80002576:	0000                	unimp
    80002578:	00000003          	lb	zero,0(zero) # 0 <_tdata_begin>
    8000257c:	0000                	unimp
    8000257e:	0000                	unimp
    80002580:	0000                	unimp
    80002582:	0000                	unimp
    80002584:	0001                	nop
    80002586:	0000                	unimp
    80002588:	0001                	nop
    8000258a:	0000                	unimp
    8000258c:	0001                	nop
    8000258e:	0000                	unimp
    80002590:	0002                	0x2
    80002592:	0000                	unimp
    80002594:	00000003          	lb	zero,0(zero) # 0 <_tdata_begin>
    80002598:	0001                	nop
    8000259a:	0000                	unimp
    8000259c:	0002                	0x2
    8000259e:	0000                	unimp
    800025a0:	00000003          	lb	zero,0(zero) # 0 <_tdata_begin>
    800025a4:	0001                	nop
    800025a6:	0000                	unimp
    800025a8:	0001                	nop
    800025aa:	0000                	unimp
    800025ac:	00000003          	lb	zero,0(zero) # 0 <_tdata_begin>
    800025b0:	0002                	0x2
    800025b2:	0000                	unimp
    800025b4:	0002                	0x2
    800025b6:	0000                	unimp
    800025b8:	0000                	unimp
    800025ba:	0000                	unimp
    800025bc:	0001                	nop
    800025be:	0000                	unimp
    800025c0:	00000003          	lb	zero,0(zero) # 0 <_tdata_begin>
    800025c4:	0002                	0x2
    800025c6:	0000                	unimp
    800025c8:	0002                	0x2
    800025ca:	0000                	unimp
    800025cc:	0002                	0x2
    800025ce:	0000                	unimp
    800025d0:	0000                	unimp
    800025d2:	0000                	unimp
    800025d4:	0000                	unimp
    800025d6:	0000                	unimp
    800025d8:	0001                	nop
    800025da:	0000                	unimp
    800025dc:	0000                	unimp
    800025de:	0000                	unimp
    800025e0:	0001                	nop
    800025e2:	0000                	unimp
    800025e4:	00000003          	lb	zero,0(zero) # 0 <_tdata_begin>
    800025e8:	00000003          	lb	zero,0(zero) # 0 <_tdata_begin>
    800025ec:	0000                	unimp
    800025ee:	0000                	unimp
    800025f0:	00000003          	lb	zero,0(zero) # 0 <_tdata_begin>
    800025f4:	00000003          	lb	zero,0(zero) # 0 <_tdata_begin>
    800025f8:	00000003          	lb	zero,0(zero) # 0 <_tdata_begin>
    800025fc:	00000003          	lb	zero,0(zero) # 0 <_tdata_begin>
    80002600:	0000                	unimp
    80002602:	0000                	unimp
    80002604:	00000003          	lb	zero,0(zero) # 0 <_tdata_begin>
    80002608:	0002                	0x2
    8000260a:	0000                	unimp
    8000260c:	0001                	nop
    8000260e:	0000                	unimp
    80002610:	0002                	0x2
    80002612:	0000                	unimp
    80002614:	0002                	0x2
    80002616:	0000                	unimp
    80002618:	0000                	unimp
    8000261a:	0000                	unimp
    8000261c:	0000                	unimp
    8000261e:	0000                	unimp
    80002620:	00000003          	lb	zero,0(zero) # 0 <_tdata_begin>
    80002624:	0000                	unimp
    80002626:	0000                	unimp
    80002628:	0001                	nop
    8000262a:	0000                	unimp
    8000262c:	0001                	nop
    8000262e:	0000                	unimp
    80002630:	0000                	unimp
    80002632:	0000                	unimp
    80002634:	00000003          	lb	zero,0(zero) # 0 <_tdata_begin>
    80002638:	00000003          	lb	zero,0(zero) # 0 <_tdata_begin>
    8000263c:	0001                	nop
    8000263e:	0000                	unimp
    80002640:	0002                	0x2
    80002642:	0000                	unimp
    80002644:	00000003          	lb	zero,0(zero) # 0 <_tdata_begin>
    80002648:	00000003          	lb	zero,0(zero) # 0 <_tdata_begin>
    8000264c:	0000                	unimp
    8000264e:	0000                	unimp
    80002650:	0001                	nop
    80002652:	0000                	unimp
    80002654:	0002                	0x2
    80002656:	0000                	unimp
    80002658:	0001                	nop
    8000265a:	0000                	unimp
    8000265c:	0000                	unimp
    8000265e:	0000                	unimp
    80002660:	0001                	nop
    80002662:	0000                	unimp
    80002664:	0002                	0x2
    80002666:	0000                	unimp
    80002668:	0002                	0x2
    8000266a:	0000                	unimp
    8000266c:	0001                	nop
    8000266e:	0000                	unimp
    80002670:	0000                	unimp
    80002672:	0000                	unimp
    80002674:	00000003          	lb	zero,0(zero) # 0 <_tdata_begin>
    80002678:	0001                	nop
    8000267a:	0000                	unimp
    8000267c:	0000                	unimp
    8000267e:	0000                	unimp
    80002680:	0002                	0x2
    80002682:	0000                	unimp
    80002684:	0002                	0x2
    80002686:	0000                	unimp
    80002688:	0001                	nop
    8000268a:	0000                	unimp
    8000268c:	0001                	nop
    8000268e:	0000                	unimp
    80002690:	0001                	nop
    80002692:	0000                	unimp
    80002694:	0001                	nop
    80002696:	0000                	unimp
    80002698:	0001                	nop
    8000269a:	0000                	unimp
    8000269c:	0001                	nop
    8000269e:	0000                	unimp
    800026a0:	0002                	0x2
    800026a2:	0000                	unimp
    800026a4:	0000                	unimp
    800026a6:	0000                	unimp
    800026a8:	00000003          	lb	zero,0(zero) # 0 <_tdata_begin>
    800026ac:	0001                	nop
    800026ae:	0000                	unimp
    800026b0:	0001                	nop
    800026b2:	0000                	unimp
    800026b4:	0002                	0x2
    800026b6:	0000                	unimp
    800026b8:	0002                	0x2
    800026ba:	0000                	unimp
    800026bc:	00000003          	lb	zero,0(zero) # 0 <_tdata_begin>
    800026c0:	00000003          	lb	zero,0(zero) # 0 <_tdata_begin>
    800026c4:	0001                	nop
    800026c6:	0000                	unimp
    800026c8:	00000003          	lb	zero,0(zero) # 0 <_tdata_begin>
    800026cc:	0002                	0x2
    800026ce:	0000                	unimp
    800026d0:	0000                	unimp
    800026d2:	0000                	unimp
    800026d4:	0000                	unimp
    800026d6:	0000                	unimp
    800026d8:	0000                	unimp
    800026da:	0000                	unimp
    800026dc:	00000003          	lb	zero,0(zero) # 0 <_tdata_begin>
    800026e0:	00000003          	lb	zero,0(zero) # 0 <_tdata_begin>
    800026e4:	00000003          	lb	zero,0(zero) # 0 <_tdata_begin>
    800026e8:	0002                	0x2
    800026ea:	0000                	unimp
    800026ec:	0001                	nop
    800026ee:	0000                	unimp
    800026f0:	0002                	0x2
    800026f2:	0000                	unimp
    800026f4:	00000003          	lb	zero,0(zero) # 0 <_tdata_begin>
    800026f8:	0001                	nop
    800026fa:	0000                	unimp
    800026fc:	0000                	unimp
    800026fe:	0000                	unimp
    80002700:	0000                	unimp
    80002702:	0000                	unimp
    80002704:	0000                	unimp
    80002706:	0000                	unimp
    80002708:	0000                	unimp
    8000270a:	0000                	unimp
    8000270c:	0001                	nop
    8000270e:	0000                	unimp
    80002710:	0002                	0x2
    80002712:	0000                	unimp
    80002714:	0002                	0x2
    80002716:	0000                	unimp
    80002718:	0001                	nop
    8000271a:	0000                	unimp
    8000271c:	0001                	nop
    8000271e:	0000                	unimp
    80002720:	00000003          	lb	zero,0(zero) # 0 <_tdata_begin>
    80002724:	00000003          	lb	zero,0(zero) # 0 <_tdata_begin>
    80002728:	00000003          	lb	zero,0(zero) # 0 <_tdata_begin>
    8000272c:	0001                	nop
    8000272e:	0000                	unimp
    80002730:	0001                	nop
    80002732:	0000                	unimp
    80002734:	0002                	0x2
    80002736:	0000                	unimp
    80002738:	00000003          	lb	zero,0(zero) # 0 <_tdata_begin>
    8000273c:	0001                	nop
    8000273e:	0000                	unimp
    80002740:	00000003          	lb	zero,0(zero) # 0 <_tdata_begin>
    80002744:	00000003          	lb	zero,0(zero) # 0 <_tdata_begin>
    80002748:	0002                	0x2
    8000274a:	0000                	unimp
    8000274c:	00000003          	lb	zero,0(zero) # 0 <_tdata_begin>
    80002750:	0002                	0x2
    80002752:	0000                	unimp
    80002754:	0001                	nop
    80002756:	0000                	unimp
    80002758:	0002                	0x2
    8000275a:	0000                	unimp
    8000275c:	00000003          	lb	zero,0(zero) # 0 <_tdata_begin>
    80002760:	0000                	unimp
    80002762:	0000                	unimp
    80002764:	0002                	0x2
    80002766:	0000                	unimp
    80002768:	0002                	0x2
    8000276a:	0000                	unimp
    8000276c:	0001                	nop
    8000276e:	0000                	unimp
    80002770:	0001                	nop
    80002772:	0000                	unimp
    80002774:	0000                	unimp
    80002776:	0000                	unimp
    80002778:	0000                	unimp
    8000277a:	0000                	unimp
    8000277c:	0000                	unimp
    8000277e:	0000                	unimp
    80002780:	0000                	unimp
    80002782:	0000                	unimp
    80002784:	0000                	unimp
    80002786:	0000                	unimp
    80002788:	0001                	nop
    8000278a:	0000                	unimp
    8000278c:	00000003          	lb	zero,0(zero) # 0 <_tdata_begin>
    80002790:	00000003          	lb	zero,0(zero) # 0 <_tdata_begin>
    80002794:	0001                	nop
    80002796:	0000                	unimp
    80002798:	0001                	nop
    8000279a:	0000                	unimp
    8000279c:	0001                	nop
    8000279e:	0000                	unimp
    800027a0:	0002                	0x2
    800027a2:	0000                	unimp
    800027a4:	0002                	0x2
    800027a6:	0000                	unimp
    800027a8:	00000003          	lb	zero,0(zero) # 0 <_tdata_begin>
    800027ac:	0002                	0x2
    800027ae:	0000                	unimp
    800027b0:	0001                	nop
    800027b2:	0000                	unimp
    800027b4:	0001                	nop
    800027b6:	0000                	unimp
    800027b8:	0001                	nop
    800027ba:	0000                	unimp
    800027bc:	0001                	nop
    800027be:	0000                	unimp
    800027c0:	00000003          	lb	zero,0(zero) # 0 <_tdata_begin>
    800027c4:	0000                	unimp
    800027c6:	0000                	unimp
    800027c8:	0002                	0x2
    800027ca:	0000                	unimp
    800027cc:	0002                	0x2
    800027ce:	0000                	unimp
    800027d0:	0001                	nop
    800027d2:	0000                	unimp
    800027d4:	00000003          	lb	zero,0(zero) # 0 <_tdata_begin>
    800027d8:	0002                	0x2
    800027da:	0000                	unimp
    800027dc:	0001                	nop
    800027de:	0000                	unimp
    800027e0:	0002                	0x2
    800027e2:	0000                	unimp
    800027e4:	0002                	0x2
    800027e6:	0000                	unimp
    800027e8:	0001                	nop
    800027ea:	0000                	unimp
    800027ec:	00000003          	lb	zero,0(zero) # 0 <_tdata_begin>
    800027f0:	0001                	nop
    800027f2:	0000                	unimp
    800027f4:	00000003          	lb	zero,0(zero) # 0 <_tdata_begin>
    800027f8:	0001                	nop
    800027fa:	0000                	unimp
    800027fc:	00000003          	lb	zero,0(zero) # 0 <_tdata_begin>
    80002800:	0002                	0x2
    80002802:	0000                	unimp
    80002804:	00000003          	lb	zero,0(zero) # 0 <_tdata_begin>
    80002808:	0001                	nop
    8000280a:	0000                	unimp
    8000280c:	0002                	0x2
    8000280e:	0000                	unimp
    80002810:	0001                	nop
    80002812:	0000                	unimp
    80002814:	00000003          	lb	zero,0(zero) # 0 <_tdata_begin>
    80002818:	0002                	0x2
    8000281a:	0000                	unimp
    8000281c:	0002                	0x2
    8000281e:	0000                	unimp
    80002820:	0000                	unimp
    80002822:	0000                	unimp
    80002824:	0001                	nop
    80002826:	0000                	unimp
    80002828:	0000                	unimp
    8000282a:	0000                	unimp
    8000282c:	0000                	unimp
    8000282e:	0000                	unimp
    80002830:	0001                	nop
    80002832:	0000                	unimp
    80002834:	0002                	0x2
    80002836:	0000                	unimp
    80002838:	00000003          	lb	zero,0(zero) # 0 <_tdata_begin>
    8000283c:	00000003          	lb	zero,0(zero) # 0 <_tdata_begin>
    80002840:	0001                	nop
    80002842:	0000                	unimp
    80002844:	0000                	unimp
    80002846:	0000                	unimp
    80002848:	0000                	unimp
    8000284a:	0000                	unimp
    8000284c:	0000                	unimp
    8000284e:	0000                	unimp
    80002850:	00000003          	lb	zero,0(zero) # 0 <_tdata_begin>
    80002854:	0001                	nop
    80002856:	0000                	unimp
    80002858:	0002                	0x2
    8000285a:	0000                	unimp
    8000285c:	00000003          	lb	zero,0(zero) # 0 <_tdata_begin>
    80002860:	0002                	0x2
    80002862:	0000                	unimp
    80002864:	00000003          	lb	zero,0(zero) # 0 <_tdata_begin>
    80002868:	0002                	0x2
    8000286a:	0000                	unimp
    8000286c:	0000                	unimp
    8000286e:	0000                	unimp
    80002870:	0000                	unimp
    80002872:	0000                	unimp
    80002874:	0000                	unimp
    80002876:	0000                	unimp
    80002878:	0000                	unimp
    8000287a:	0000                	unimp
    8000287c:	0000                	unimp
    8000287e:	0000                	unimp
    80002880:	00000003          	lb	zero,0(zero) # 0 <_tdata_begin>
    80002884:	0001                	nop
    80002886:	0000                	unimp
    80002888:	00000003          	lb	zero,0(zero) # 0 <_tdata_begin>
    8000288c:	0000                	unimp
    8000288e:	0000                	unimp
    80002890:	0000                	unimp
    80002892:	0000                	unimp
    80002894:	0000                	unimp
    80002896:	0000                	unimp
    80002898:	00000003          	lb	zero,0(zero) # 0 <_tdata_begin>
    8000289c:	0001                	nop
    8000289e:	0000                	unimp
    800028a0:	0001                	nop
    800028a2:	0000                	unimp
    800028a4:	0001                	nop
    800028a6:	0000                	unimp
    800028a8:	0001                	nop
    800028aa:	0000                	unimp
    800028ac:	0002                	0x2
    800028ae:	0000                	unimp
    800028b0:	0001                	nop
    800028b2:	0000                	unimp
    800028b4:	0002                	0x2
    800028b6:	0000                	unimp
    800028b8:	00000003          	lb	zero,0(zero) # 0 <_tdata_begin>
    800028bc:	0002                	0x2
    800028be:	0000                	unimp
    800028c0:	0000                	unimp
    800028c2:	0000                	unimp
    800028c4:	0000                	unimp
    800028c6:	0000                	unimp
    800028c8:	0002                	0x2
    800028ca:	0000                	unimp
    800028cc:	0002                	0x2
    800028ce:	0000                	unimp
    800028d0:	00000003          	lb	zero,0(zero) # 0 <_tdata_begin>
    800028d4:	0000                	unimp
    800028d6:	0000                	unimp
    800028d8:	00000003          	lb	zero,0(zero) # 0 <_tdata_begin>
    800028dc:	0000                	unimp
    800028de:	0000                	unimp
    800028e0:	0000                	unimp
    800028e2:	0000                	unimp
    800028e4:	00000003          	lb	zero,0(zero) # 0 <_tdata_begin>
    800028e8:	0000                	unimp
    800028ea:	0000                	unimp
    800028ec:	00000003          	lb	zero,0(zero) # 0 <_tdata_begin>
    800028f0:	0001                	nop
    800028f2:	0000                	unimp
    800028f4:	00000003          	lb	zero,0(zero) # 0 <_tdata_begin>
    800028f8:	00000003          	lb	zero,0(zero) # 0 <_tdata_begin>
    800028fc:	0001                	nop
    800028fe:	0000                	unimp
    80002900:	0001                	nop
    80002902:	0000                	unimp
    80002904:	0001                	nop
    80002906:	0000                	unimp
    80002908:	0002                	0x2
    8000290a:	0000                	unimp
    8000290c:	0002                	0x2
    8000290e:	0000                	unimp
    80002910:	0001                	nop
    80002912:	0000                	unimp
    80002914:	00000003          	lb	zero,0(zero) # 0 <_tdata_begin>
    80002918:	0000                	unimp
    8000291a:	0000                	unimp
    8000291c:	00000003          	lb	zero,0(zero) # 0 <_tdata_begin>
    80002920:	00000003          	lb	zero,0(zero) # 0 <_tdata_begin>
    80002924:	0001                	nop
    80002926:	0000                	unimp
    80002928:	0000                	unimp
    8000292a:	0000                	unimp
    8000292c:	0000                	unimp
    8000292e:	0000                	unimp
    80002930:	00000003          	lb	zero,0(zero) # 0 <_tdata_begin>
    80002934:	0002                	0x2
    80002936:	0000                	unimp

0000000080002938 <verify_data>:
    80002938:	0024                	addi	s1,sp,8
    8000293a:	0000                	unimp
    8000293c:	002c                	addi	a1,sp,8
    8000293e:	0000                	unimp
    80002940:	0039                	0x39
    80002942:	0000                	unimp
    80002944:	0032                	0x32
    80002946:	0000                	unimp
    80002948:	0036                	0x36
    8000294a:	0000                	unimp
    8000294c:	0024                	addi	s1,sp,8
    8000294e:	0000                	unimp
    80002950:	0026                	0x26
    80002952:	0000                	unimp
    80002954:	002e                	0x2e
    80002956:	0000                	unimp
    80002958:	00000037          	lui	zero,0x0
    8000295c:	0019                	0x19
    8000295e:	0000                	unimp
    80002960:	0026                	0x26
    80002962:	0000                	unimp
    80002964:	0022                	0x22
    80002966:	0000                	unimp
    80002968:	00000033          	add	zero,zero,zero
    8000296c:	001e                	0x1e
    8000296e:	0000                	unimp
    80002970:	0028                	addi	a0,sp,8
    80002972:	0000                	unimp
    80002974:	0020                	addi	s0,sp,8
    80002976:	0000                	unimp
    80002978:	0025                	0x25
    8000297a:	0000                	unimp
    8000297c:	0022                	0x22
    8000297e:	0000                	unimp
    80002980:	0026                	0x26
    80002982:	0000                	unimp
    80002984:	0034                	addi	a3,sp,8
    80002986:	0000                	unimp
    80002988:	00000033          	add	zero,zero,zero
    8000298c:	0028                	addi	a0,sp,8
    8000298e:	0000                	unimp
    80002990:	001c                	addi	a5,sp,0
    80002992:	0000                	unimp
    80002994:	0020                	addi	s0,sp,8
    80002996:	0000                	unimp
    80002998:	0029                	0x29
    8000299a:	0000                	unimp
    8000299c:	0016                	0x16
    8000299e:	0000                	unimp
    800029a0:	001a                	0x1a
    800029a2:	0000                	unimp
    800029a4:	00000023          	sb	zero,0(zero) # 0 <_tdata_begin>
    800029a8:	0031                	0x31
    800029aa:	0000                	unimp
    800029ac:	00000023          	sb	zero,0(zero) # 0 <_tdata_begin>
    800029b0:	002a                	0x2a
    800029b2:	0000                	unimp
    800029b4:	00000017          	auipc	zero,0x0
    800029b8:	001a                	0x1a
    800029ba:	0000                	unimp
    800029bc:	001a                	0x1a
    800029be:	0000                	unimp
    800029c0:	0021                	0x21
    800029c2:	0000                	unimp
    800029c4:	0024                	addi	s1,sp,8
    800029c6:	0000                	unimp
    800029c8:	0034                	addi	a3,sp,8
    800029ca:	0000                	unimp
    800029cc:	0028                	addi	a0,sp,8
    800029ce:	0000                	unimp
    800029d0:	002d                	0x2d
    800029d2:	0000                	unimp
    800029d4:	0031                	0x31
    800029d6:	0000                	unimp
    800029d8:	0032                	0x32
    800029da:	0000                	unimp
    800029dc:	0022                	0x22
    800029de:	0000                	unimp
    800029e0:	0029                	0x29
    800029e2:	0000                	unimp
    800029e4:	00000023          	sb	zero,0(zero) # 800029b4 <verify_data+0x7c>
    800029e8:	002c                	addi	a1,sp,8
    800029ea:	0000                	unimp
    800029ec:	0019                	0x19
    800029ee:	0000                	unimp
    800029f0:	00000017          	auipc	zero,0x0
    800029f4:	00000017          	auipc	zero,0x0
    800029f8:	001f 0000 001d      	0x1d0000001f
    800029fe:	0000                	unimp
    80002a00:	00000027          	0x27
    80002a04:	002e                	0x2e
    80002a06:	0000                	unimp
    80002a08:	0032                	0x32
    80002a0a:	0000                	unimp
    80002a0c:	0024                	addi	s1,sp,8
    80002a0e:	0000                	unimp
    80002a10:	001f 0000 0020      	0x200000001f
    80002a16:	0000                	unimp
    80002a18:	002a                	0x2a
    80002a1a:	0000                	unimp
    80002a1c:	0020                	addi	s0,sp,8
    80002a1e:	0000                	unimp
    80002a20:	0022                	0x22
    80002a22:	0000                	unimp
    80002a24:	0029                	0x29
    80002a26:	0000                	unimp
    80002a28:	002c                	addi	a1,sp,8
    80002a2a:	0000                	unimp
    80002a2c:	0021                	0x21
    80002a2e:	0000                	unimp
    80002a30:	0000002b          	0x2b
    80002a34:	001e                	0x1e
    80002a36:	0000                	unimp
    80002a38:	001f 0000 001c      	0x1c0000001f
    80002a3e:	0000                	unimp
    80002a40:	00000027          	0x27
    80002a44:	002e                	0x2e
    80002a46:	0000                	unimp
    80002a48:	0032                	0x32
    80002a4a:	0000                	unimp
    80002a4c:	0028                	addi	a0,sp,8
    80002a4e:	0000                	unimp
    80002a50:	00000023          	sb	zero,0(zero) # 800029f4 <verify_data+0xbc>
    80002a54:	0025                	0x25
    80002a56:	0000                	unimp
    80002a58:	0000002b          	0x2b
    80002a5c:	00000023          	sb	zero,0(zero) # 0 <_tdata_begin>
    80002a60:	0021                	0x21
    80002a62:	0000                	unimp
    80002a64:	0000002b          	0x2b
    80002a68:	0000002b          	0x2b
    80002a6c:	001d                	0x1d
    80002a6e:	0000                	unimp
    80002a70:	0025                	0x25
    80002a72:	0000                	unimp
    80002a74:	001d                	0x1d
    80002a76:	0000                	unimp
    80002a78:	0000001b          	sext.w	zero,zero
    80002a7c:	0016                	0x16
    80002a7e:	0000                	unimp
    80002a80:	001e                	0x1e
    80002a82:	0000                	unimp
    80002a84:	0021                	0x21
    80002a86:	0000                	unimp
    80002a88:	0000002b          	0x2b
    80002a8c:	001f 0000 0020      	0x200000001f
    80002a92:	0000                	unimp
    80002a94:	0019                	0x19
    80002a96:	0000                	unimp
    80002a98:	0024                	addi	s1,sp,8
    80002a9a:	0000                	unimp
    80002a9c:	001f 0000 001f      	0x1f0000001f
    80002aa2:	0000                	unimp
    80002aa4:	001d                	0x1d
    80002aa6:	0000                	unimp
    80002aa8:	0028                	addi	a0,sp,8
    80002aaa:	0000                	unimp
    80002aac:	001c                	addi	a5,sp,0
    80002aae:	0000                	unimp
    80002ab0:	001a                	0x1a
    80002ab2:	0000                	unimp
    80002ab4:	0016                	0x16
    80002ab6:	0000                	unimp
    80002ab8:	001d                	0x1d
    80002aba:	0000                	unimp
    80002abc:	002a                	0x2a
    80002abe:	0000                	unimp
    80002ac0:	0030                	addi	a2,sp,8
    80002ac2:	0000                	unimp
    80002ac4:	00000033          	add	zero,zero,zero
    80002ac8:	0041                	0x41
    80002aca:	0000                	unimp
    80002acc:	0034                	addi	a3,sp,8
    80002ace:	0000                	unimp
    80002ad0:	0000002b          	0x2b
    80002ad4:	0036                	0x36
    80002ad6:	0000                	unimp
    80002ad8:	0000003f 00000022 	0x220000003f
    80002ae0:	002a                	0x2a
    80002ae2:	0000                	unimp
    80002ae4:	002c                	addi	a1,sp,8
    80002ae6:	0000                	unimp
    80002ae8:	0038                	addi	a4,sp,8
    80002aea:	0000                	unimp
    80002aec:	0021                	0x21
    80002aee:	0000                	unimp
    80002af0:	0026                	0x26
    80002af2:	0000                	unimp
    80002af4:	0020                	addi	s0,sp,8
    80002af6:	0000                	unimp
    80002af8:	001a                	0x1a
    80002afa:	0000                	unimp
    80002afc:	0016                	0x16
    80002afe:	0000                	unimp
    80002b00:	00000017          	auipc	zero,0x0
    80002b04:	0026                	0x26
    80002b06:	0000                	unimp
    80002b08:	0031                	0x31
    80002b0a:	0000                	unimp
    80002b0c:	0020                	addi	s0,sp,8
    80002b0e:	0000                	unimp
    80002b10:	001a                	0x1a
    80002b12:	0000                	unimp
    80002b14:	001e                	0x1e
    80002b16:	0000                	unimp
    80002b18:	0000002b          	0x2b
    80002b1c:	0016                	0x16
    80002b1e:	0000                	unimp
    80002b20:	0018                	addi	a4,sp,0
    80002b22:	0000                	unimp
    80002b24:	0000001b          	sext.w	zero,zero
    80002b28:	002d                	0x2d
    80002b2a:	0000                	unimp
    80002b2c:	0018                	addi	a4,sp,0
    80002b2e:	0000                	unimp
    80002b30:	001a                	0x1a
    80002b32:	0000                	unimp
    80002b34:	0011                	0x11
    80002b36:	0000                	unimp
    80002b38:	00000023          	sb	zero,0(zero) # 80002b00 <verify_data+0x1c8>
    80002b3c:	00000023          	sb	zero,0(zero) # 0 <_tdata_begin>
    80002b40:	0000002f          	0x2f
    80002b44:	00000033          	add	zero,zero,zero
    80002b48:	0000003b          	addw	zero,zero,zero
    80002b4c:	0000003b          	addw	zero,zero,zero
    80002b50:	0000002b          	0x2b
    80002b54:	002a                	0x2a
    80002b56:	0000                	unimp
    80002b58:	0000002b          	0x2b
    80002b5c:	001c                	addi	a5,sp,0
    80002b5e:	0000                	unimp
    80002b60:	0025                	0x25
    80002b62:	0000                	unimp
    80002b64:	0000002b          	0x2b
    80002b68:	0038                	addi	a4,sp,8
    80002b6a:	0000                	unimp
    80002b6c:	0030                	addi	a2,sp,8
    80002b6e:	0000                	unimp
    80002b70:	0024                	addi	s1,sp,8
    80002b72:	0000                	unimp
    80002b74:	0020                	addi	s0,sp,8
    80002b76:	0000                	unimp
    80002b78:	001c                	addi	a5,sp,0
    80002b7a:	0000                	unimp
    80002b7c:	00000013          	nop
    80002b80:	001c                	addi	a5,sp,0
    80002b82:	0000                	unimp
    80002b84:	0022                	0x22
    80002b86:	0000                	unimp
    80002b88:	002e                	0x2e
    80002b8a:	0000                	unimp
    80002b8c:	0022                	0x22
    80002b8e:	0000                	unimp
    80002b90:	001c                	addi	a5,sp,0
    80002b92:	0000                	unimp
    80002b94:	0022                	0x22
    80002b96:	0000                	unimp
    80002b98:	002d                	0x2d
    80002b9a:	0000                	unimp
    80002b9c:	0014                	addi	a3,sp,0
    80002b9e:	0000                	unimp
    80002ba0:	001d                	0x1d
    80002ba2:	0000                	unimp
    80002ba4:	001c                	addi	a5,sp,0
    80002ba6:	0000                	unimp
    80002ba8:	0032                	0x32
    80002baa:	0000                	unimp
    80002bac:	0020                	addi	s0,sp,8
    80002bae:	0000                	unimp
    80002bb0:	001a                	0x1a
    80002bb2:	0000                	unimp
    80002bb4:	0015                	0x15
    80002bb6:	0000                	unimp
    80002bb8:	0025                	0x25
    80002bba:	0000                	unimp
    80002bbc:	0026                	0x26
    80002bbe:	0000                	unimp
    80002bc0:	00000033          	add	zero,zero,zero
    80002bc4:	0032                	0x32
    80002bc6:	0000                	unimp
    80002bc8:	00000037          	lui	zero,0x0
    80002bcc:	002d                	0x2d
    80002bce:	0000                	unimp
    80002bd0:	0026                	0x26
    80002bd2:	0000                	unimp
    80002bd4:	0031                	0x31
    80002bd6:	0000                	unimp
    80002bd8:	0038                	addi	a4,sp,8
    80002bda:	0000                	unimp
    80002bdc:	001c                	addi	a5,sp,0
    80002bde:	0000                	unimp
    80002be0:	0026                	0x26
    80002be2:	0000                	unimp
    80002be4:	0028                	addi	a0,sp,8
    80002be6:	0000                	unimp
    80002be8:	0032                	0x32
    80002bea:	0000                	unimp
    80002bec:	001d                	0x1d
    80002bee:	0000                	unimp
    80002bf0:	002c                	addi	a1,sp,8
    80002bf2:	0000                	unimp
    80002bf4:	001a                	0x1a
    80002bf6:	0000                	unimp
    80002bf8:	0020                	addi	s0,sp,8
    80002bfa:	0000                	unimp
    80002bfc:	00000023          	sb	zero,0(zero) # 0 <_tdata_begin>
    80002c00:	0032                	0x32
    80002c02:	0000                	unimp
    80002c04:	0000002b          	0x2b
    80002c08:	0035                	0x35
    80002c0a:	0000                	unimp
    80002c0c:	002c                	addi	a1,sp,8
    80002c0e:	0000                	unimp
    80002c10:	0029                	0x29
    80002c12:	0000                	unimp
    80002c14:	0029                	0x29
    80002c16:	0000                	unimp
    80002c18:	0022                	0x22
    80002c1a:	0000                	unimp
    80002c1c:	0018                	addi	a4,sp,0
    80002c1e:	0000                	unimp
    80002c20:	00000023          	sb	zero,0(zero) # 0 <_tdata_begin>
    80002c24:	0022                	0x22
    80002c26:	0000                	unimp
    80002c28:	00000027          	0x27
    80002c2c:	0021                	0x21
    80002c2e:	0000                	unimp
    80002c30:	0022                	0x22
    80002c32:	0000                	unimp
    80002c34:	001d                	0x1d
    80002c36:	0000                	unimp
    80002c38:	0015                	0x15
    80002c3a:	0000                	unimp
    80002c3c:	0021                	0x21
    80002c3e:	0000                	unimp
    80002c40:	001f 0000 002d      	0x2d0000001f
    80002c46:	0000                	unimp
    80002c48:	0030                	addi	a2,sp,8
    80002c4a:	0000                	unimp
    80002c4c:	002a                	0x2a
    80002c4e:	0000                	unimp
    80002c50:	0000001b          	sext.w	zero,zero
    80002c54:	001d                	0x1d
    80002c56:	0000                	unimp
    80002c58:	0028                	addi	a0,sp,8
    80002c5a:	0000                	unimp
    80002c5c:	0011                	0x11
    80002c5e:	0000                	unimp
    80002c60:	0015                	0x15
    80002c62:	0000                	unimp
    80002c64:	0020                	addi	s0,sp,8
    80002c66:	0000                	unimp
    80002c68:	002d                	0x2d
    80002c6a:	0000                	unimp
    80002c6c:	001e                	0x1e
    80002c6e:	0000                	unimp
    80002c70:	001d                	0x1d
    80002c72:	0000                	unimp
    80002c74:	001a                	0x1a
    80002c76:	0000                	unimp
    80002c78:	001a                	0x1a
    80002c7a:	0000                	unimp
    80002c7c:	0000001b          	sext.w	zero,zero
    80002c80:	0026                	0x26
    80002c82:	0000                	unimp
    80002c84:	0021                	0x21
    80002c86:	0000                	unimp
    80002c88:	001d                	0x1d
    80002c8a:	0000                	unimp
    80002c8c:	001f 0000 0020      	0x200000001f
    80002c92:	0000                	unimp
    80002c94:	001f 0000 0023      	0x230000001f
    80002c9a:	0000                	unimp
    80002c9c:	0019                	0x19
    80002c9e:	0000                	unimp
    80002ca0:	001d                	0x1d
    80002ca2:	0000                	unimp
    80002ca4:	001d                	0x1d
    80002ca6:	0000                	unimp
    80002ca8:	0022                	0x22
    80002caa:	0000                	unimp
    80002cac:	0000000f          	fence	unknown,unknown
    80002cb0:	0019                	0x19
    80002cb2:	0000                	unimp
    80002cb4:	00000017          	auipc	zero,0x0
    80002cb8:	0022                	0x22
    80002cba:	0000                	unimp
    80002cbc:	001c                	addi	a5,sp,0
    80002cbe:	0000                	unimp
    80002cc0:	002c                	addi	a1,sp,8
    80002cc2:	0000                	unimp
    80002cc4:	002d                	0x2d
    80002cc6:	0000                	unimp
    80002cc8:	0029                	0x29
    80002cca:	0000                	unimp
    80002ccc:	0029                	0x29
    80002cce:	0000                	unimp
    80002cd0:	0025                	0x25
    80002cd2:	0000                	unimp
    80002cd4:	002d                	0x2d
    80002cd6:	0000                	unimp
    80002cd8:	002d                	0x2d
    80002cda:	0000                	unimp
    80002cdc:	0011                	0x11
    80002cde:	0000                	unimp
    80002ce0:	0022                	0x22
    80002ce2:	0000                	unimp
    80002ce4:	002c                	addi	a1,sp,8
    80002ce6:	0000                	unimp
    80002ce8:	002e                	0x2e
    80002cea:	0000                	unimp
    80002cec:	001e                	0x1e
    80002cee:	0000                	unimp
    80002cf0:	0000002b          	0x2b
    80002cf4:	001d                	0x1d
    80002cf6:	0000                	unimp
    80002cf8:	001f 0000 0024      	0x240000001f
    80002cfe:	0000                	unimp
    80002d00:	0025                	0x25
    80002d02:	0000                	unimp
    80002d04:	0032                	0x32
    80002d06:	0000                	unimp
    80002d08:	0036                	0x36
    80002d0a:	0000                	unimp
    80002d0c:	002c                	addi	a1,sp,8
    80002d0e:	0000                	unimp
    80002d10:	001c                	addi	a5,sp,0
    80002d12:	0000                	unimp
    80002d14:	0028                	addi	a0,sp,8
    80002d16:	0000                	unimp
    80002d18:	0026                	0x26
    80002d1a:	0000                	unimp
    80002d1c:	0016                	0x16
    80002d1e:	0000                	unimp
    80002d20:	0000001b          	sext.w	zero,zero
    80002d24:	001c                	addi	a5,sp,0
    80002d26:	0000                	unimp
    80002d28:	002d                	0x2d
    80002d2a:	0000                	unimp
    80002d2c:	0020                	addi	s0,sp,8
    80002d2e:	0000                	unimp
    80002d30:	0024                	addi	s1,sp,8
    80002d32:	0000                	unimp
    80002d34:	0016                	0x16
    80002d36:	0000                	unimp
