
mt-matmul.riscv:     file format elf64-littleriscv


Disassembly of section .text:

0000000080001048 <barrier>:
    80001048:	0330000f          	fence	rw,rw
    8000104c:	00022683          	lw	a3,0(tp) # 0 <_tdata_begin>
    80001050:	00002717          	auipc	a4,0x2
    80001054:	cec70713          	addi	a4,a4,-788 # 80002d3c <count.2992>
    80001058:	00100613          	li	a2,1
    8000105c:	0016b693          	seqz	a3,a3
    80001060:	00d22023          	sw	a3,0(tp) # 0 <_tdata_begin>
    80001064:	06c726af          	amoadd.w.sc	a3,a2,(a4)
    80001068:	fff5051b          	addiw	a0,a0,-1
    8000106c:	00a68e63          	beq	a3,a0,80001088 <barrier+0x40>
    80001070:	00022703          	lw	a4,0(tp) # 0 <_tdata_begin>
    80001074:	00002797          	auipc	a5,0x2
    80001078:	cc47a783          	lw	a5,-828(a5) # 80002d38 <sense.2991>
    8000107c:	fee79ce3          	bne	a5,a4,80001074 <barrier+0x2c>
    80001080:	0330000f          	fence	rw,rw
    80001084:	00008067          	ret
    80001088:	00022783          	lw	a5,0(tp) # 0 <_tdata_begin>
    8000108c:	00002717          	auipc	a4,0x2
    80001090:	ca072823          	sw	zero,-848(a4) # 80002d3c <count.2992>
    80001094:	00002717          	auipc	a4,0x2
    80001098:	caf72223          	sw	a5,-860(a4) # 80002d38 <sense.2991>
    8000109c:	fe5ff06f          	j	80001080 <barrier+0x38>

00000000800010a0 <thread_entry>:
    800010a0:	fd010113          	addi	sp,sp,-48
    800010a4:	02813023          	sd	s0,32(sp)
    800010a8:	00913c23          	sd	s1,24(sp)
    800010ac:	02113423          	sd	ra,40(sp)
    800010b0:	01213823          	sd	s2,16(sp)
    800010b4:	01313423          	sd	s3,8(sp)
    800010b8:	00050413          	mv	s0,a0
    800010bc:	00058493          	mv	s1,a1
    800010c0:	b00029f3          	csrr	s3,mcycle
    800010c4:	b0202973          	csrr	s2,minstret
    800010c8:	00002797          	auipc	a5,0x2
    800010cc:	c7878793          	addi	a5,a5,-904 # 80002d40 <results_data.3012>
    800010d0:	00001717          	auipc	a4,0x1
    800010d4:	06870713          	addi	a4,a4,104 # 80002138 <input2_data>
    800010d8:	00001697          	auipc	a3,0x1
    800010dc:	46068693          	addi	a3,a3,1120 # 80002538 <input1_data>
    800010e0:	01000613          	li	a2,16
    800010e4:	00048593          	mv	a1,s1
    800010e8:	00040513          	mv	a0,s0
    800010ec:	0ac000ef          	jal	80001198 <matmul>
    800010f0:	00048513          	mv	a0,s1
    800010f4:	f55ff0ef          	jal	80001048 <barrier>
    800010f8:	b00027f3          	csrr	a5,mcycle
    800010fc:	b02026f3          	csrr	a3,minstret
    80001100:	04040a63          	beqz	s0,80001154 <thread_entry+0xb4>
    80001104:	00002717          	auipc	a4,0x2
    80001108:	c3c70713          	addi	a4,a4,-964 # 80002d40 <results_data.3012>
    8000110c:	00002797          	auipc	a5,0x2
    80001110:	82c78793          	addi	a5,a5,-2004 # 80002938 <verify_data>
    80001114:	00000513          	li	a0,0
    80001118:	10000893          	li	a7,256
    8000111c:	00072603          	lw	a2,0(a4)
    80001120:	0007a683          	lw	a3,0(a5)
    80001124:	00472803          	lw	a6,4(a4)
    80001128:	0047a583          	lw	a1,4(a5)
    8000112c:	02d61063          	bne	a2,a3,8000114c <thread_entry+0xac>
    80001130:	0025051b          	addiw	a0,a0,2
    80001134:	00b81a63          	bne	a6,a1,80001148 <thread_entry+0xa8>
    80001138:	00870713          	addi	a4,a4,8
    8000113c:	00878793          	addi	a5,a5,8
    80001140:	fd151ee3          	bne	a0,a7,8000111c <thread_entry+0x7c>
    80001144:	00000513          	li	a0,0
    80001148:	0d9000ef          	jal	80001a20 <exit>
    8000114c:	0015051b          	addiw	a0,a0,1
    80001150:	ff9ff06f          	j	80001148 <thread_entry+0xa8>
    80001154:	413787b3          	sub	a5,a5,s3
    80001158:	00a00713          	li	a4,10
    8000115c:	02e78333          	mul	t1,a5,a4
    80001160:	41268933          	sub	s2,a3,s2
    80001164:	00078613          	mv	a2,a5
    80001168:	00c7d693          	srli	a3,a5,0xc
    8000116c:	00001597          	auipc	a1,0x1
    80001170:	da458593          	addi	a1,a1,-604 # 80001f10 <main+0x38>
    80001174:	00001517          	auipc	a0,0x1
    80001178:	dec50513          	addi	a0,a0,-532 # 80001f60 <main+0x88>
    8000117c:	03235833          	divu	a6,t1,s2
    80001180:	00c35313          	srli	t1,t1,0xc
    80001184:	02e87833          	remu	a6,a6,a4
    80001188:	0327d7b3          	divu	a5,a5,s2
    8000118c:	02e37733          	remu	a4,t1,a4
    80001190:	17d000ef          	jal	80001b0c <printf>
    80001194:	f71ff06f          	j	80001104 <thread_entry+0x64>

0000000080001198 <matmul>:
    80001198:	02b655b3          	divu	a1,a2,a1
    8000119c:	fd010113          	addi	sp,sp,-48
    800011a0:	01213c23          	sd	s2,24(sp)
    800011a4:	02813423          	sd	s0,40(sp)
    800011a8:	02913023          	sd	s1,32(sp)
    800011ac:	01313823          	sd	s3,16(sp)
    800011b0:	01413423          	sd	s4,8(sp)
    800011b4:	02a58933          	mul	s2,a1,a0
    800011b8:	20060e63          	beqz	a2,800013d4 <matmul+0x23c>
    800011bc:	00261313          	slli	t1,a2,0x2
    800011c0:	00070393          	mv	t2,a4
    800011c4:	00190713          	addi	a4,s2,1
    800011c8:	01258533          	add	a0,a1,s2
    800011cc:	00000493          	li	s1,0
    800011d0:	02690a33          	mul	s4,s2,t1
    800011d4:	02670733          	mul	a4,a4,t1
    800011d8:	01478433          	add	s0,a5,s4
    800011dc:	01468a33          	add	s4,a3,s4
    800011e0:	00e689b3          	add	s3,a3,a4
    800011e4:	1ea97063          	bleu	a0,s2,800013c4 <matmul+0x22c>
    800011e8:	00098e93          	mv	t4,s3
    800011ec:	000a0f13          	mv	t5,s4
    800011f0:	00040293          	mv	t0,s0
    800011f4:	00090f93          	mv	t6,s2
    800011f8:	41ee8833          	sub	a6,t4,t5
    800011fc:	000f2683          	lw	a3,0(t5)
    80001200:	0003a703          	lw	a4,0(t2)
    80001204:	ffc80813          	addi	a6,a6,-4
    80001208:	00285813          	srli	a6,a6,0x2
    8000120c:	004f0893          	addi	a7,t5,4
    80001210:	00787813          	andi	a6,a6,7
    80001214:	02e685bb          	mulw	a1,a3,a4
    80001218:	006387b3          	add	a5,t2,t1
    8000121c:	191e8863          	beq	t4,a7,800013ac <matmul+0x214>
    80001220:	0e080063          	beqz	a6,80001300 <matmul+0x168>
    80001224:	00100713          	li	a4,1
    80001228:	0ae80e63          	beq	a6,a4,800012e4 <matmul+0x14c>
    8000122c:	00200713          	li	a4,2
    80001230:	08e80e63          	beq	a6,a4,800012cc <matmul+0x134>
    80001234:	00300713          	li	a4,3
    80001238:	06e80e63          	beq	a6,a4,800012b4 <matmul+0x11c>
    8000123c:	00400713          	li	a4,4
    80001240:	04e80e63          	beq	a6,a4,8000129c <matmul+0x104>
    80001244:	00500713          	li	a4,5
    80001248:	02e80e63          	beq	a6,a4,80001284 <matmul+0xec>
    8000124c:	00600713          	li	a4,6
    80001250:	00e80e63          	beq	a6,a4,8000126c <matmul+0xd4>
    80001254:	0008a683          	lw	a3,0(a7)
    80001258:	0007a703          	lw	a4,0(a5)
    8000125c:	008f0893          	addi	a7,t5,8
    80001260:	006787b3          	add	a5,a5,t1
    80001264:	02e6883b          	mulw	a6,a3,a4
    80001268:	010585bb          	addw	a1,a1,a6
    8000126c:	0008a683          	lw	a3,0(a7)
    80001270:	0007a703          	lw	a4,0(a5)
    80001274:	00488893          	addi	a7,a7,4
    80001278:	006787b3          	add	a5,a5,t1
    8000127c:	02e6883b          	mulw	a6,a3,a4
    80001280:	010585bb          	addw	a1,a1,a6
    80001284:	0008a683          	lw	a3,0(a7)
    80001288:	0007a703          	lw	a4,0(a5)
    8000128c:	00488893          	addi	a7,a7,4
    80001290:	006787b3          	add	a5,a5,t1
    80001294:	02e6883b          	mulw	a6,a3,a4
    80001298:	010585bb          	addw	a1,a1,a6
    8000129c:	0008a683          	lw	a3,0(a7)
    800012a0:	0007a703          	lw	a4,0(a5)
    800012a4:	00488893          	addi	a7,a7,4
    800012a8:	006787b3          	add	a5,a5,t1
    800012ac:	02e6883b          	mulw	a6,a3,a4
    800012b0:	010585bb          	addw	a1,a1,a6
    800012b4:	0008a683          	lw	a3,0(a7)
    800012b8:	0007a703          	lw	a4,0(a5)
    800012bc:	00488893          	addi	a7,a7,4
    800012c0:	006787b3          	add	a5,a5,t1
    800012c4:	02e6883b          	mulw	a6,a3,a4
    800012c8:	010585bb          	addw	a1,a1,a6
    800012cc:	0008a683          	lw	a3,0(a7)
    800012d0:	0007a703          	lw	a4,0(a5)
    800012d4:	00488893          	addi	a7,a7,4
    800012d8:	006787b3          	add	a5,a5,t1
    800012dc:	02e6883b          	mulw	a6,a3,a4
    800012e0:	010585bb          	addw	a1,a1,a6
    800012e4:	0008a683          	lw	a3,0(a7)
    800012e8:	0007a703          	lw	a4,0(a5)
    800012ec:	00488893          	addi	a7,a7,4
    800012f0:	006787b3          	add	a5,a5,t1
    800012f4:	02e6883b          	mulw	a6,a3,a4
    800012f8:	010585bb          	addw	a1,a1,a6
    800012fc:	0b1e8863          	beq	t4,a7,800013ac <matmul+0x214>
    80001300:	0008a683          	lw	a3,0(a7)
    80001304:	0007a703          	lw	a4,0(a5)
    80001308:	006787b3          	add	a5,a5,t1
    8000130c:	00488e13          	addi	t3,a7,4
    80001310:	02e6883b          	mulw	a6,a3,a4
    80001314:	0048a683          	lw	a3,4(a7)
    80001318:	0007a703          	lw	a4,0(a5)
    8000131c:	006787b3          	add	a5,a5,t1
    80001320:	02088893          	addi	a7,a7,32
    80001324:	010585bb          	addw	a1,a1,a6
    80001328:	02e6883b          	mulw	a6,a3,a4
    8000132c:	fe88a683          	lw	a3,-24(a7)
    80001330:	0007a703          	lw	a4,0(a5)
    80001334:	006787b3          	add	a5,a5,t1
    80001338:	010585bb          	addw	a1,a1,a6
    8000133c:	02e6883b          	mulw	a6,a3,a4
    80001340:	0007a703          	lw	a4,0(a5)
    80001344:	008e2683          	lw	a3,8(t3)
    80001348:	006787b3          	add	a5,a5,t1
    8000134c:	010585bb          	addw	a1,a1,a6
    80001350:	02e6883b          	mulw	a6,a3,a4
    80001354:	0007a703          	lw	a4,0(a5)
    80001358:	00ce2683          	lw	a3,12(t3)
    8000135c:	006787b3          	add	a5,a5,t1
    80001360:	010585bb          	addw	a1,a1,a6
    80001364:	02e6883b          	mulw	a6,a3,a4
    80001368:	0007a703          	lw	a4,0(a5)
    8000136c:	010e2683          	lw	a3,16(t3)
    80001370:	006787b3          	add	a5,a5,t1
    80001374:	010585bb          	addw	a1,a1,a6
    80001378:	02e6883b          	mulw	a6,a3,a4
    8000137c:	0007a703          	lw	a4,0(a5)
    80001380:	014e2683          	lw	a3,20(t3)
    80001384:	006787b3          	add	a5,a5,t1
    80001388:	010585bb          	addw	a1,a1,a6
    8000138c:	02e6883b          	mulw	a6,a3,a4
    80001390:	0007a703          	lw	a4,0(a5)
    80001394:	018e2683          	lw	a3,24(t3)
    80001398:	006787b3          	add	a5,a5,t1
    8000139c:	010585bb          	addw	a1,a1,a6
    800013a0:	02e6883b          	mulw	a6,a3,a4
    800013a4:	010585bb          	addw	a1,a1,a6
    800013a8:	f51e9ce3          	bne	t4,a7,80001300 <matmul+0x168>
    800013ac:	00b2a023          	sw	a1,0(t0)
    800013b0:	001f8f93          	addi	t6,t6,1
    800013b4:	006282b3          	add	t0,t0,t1
    800013b8:	006f0f33          	add	t5,t5,t1
    800013bc:	006e8eb3          	add	t4,t4,t1
    800013c0:	e2af9ce3          	bne	t6,a0,800011f8 <matmul+0x60>
    800013c4:	00148493          	addi	s1,s1,1
    800013c8:	00438393          	addi	t2,t2,4
    800013cc:	00440413          	addi	s0,s0,4
    800013d0:	e0961ae3          	bne	a2,s1,800011e4 <matmul+0x4c>
    800013d4:	02813403          	ld	s0,40(sp)
    800013d8:	02013483          	ld	s1,32(sp)
    800013dc:	01813903          	ld	s2,24(sp)
    800013e0:	01013983          	ld	s3,16(sp)
    800013e4:	00813a03          	ld	s4,8(sp)
    800013e8:	03010113          	addi	sp,sp,48
    800013ec:	00008067          	ret

00000000800013f0 <putchar>:
    800013f0:	08022603          	lw	a2,128(tp) # 80 <buflen.2676>
    800013f4:	00060813          	mv	a6,a2
    800013f8:	04020793          	addi	a5,tp,64 # 40 <buf.2675>
    800013fc:	010787b3          	add	a5,a5,a6
    80001400:	0016061b          	addiw	a2,a2,1
    80001404:	00a78023          	sb	a0,0(a5)
    80001408:	08c22023          	sw	a2,128(tp) # 80 <buflen.2676>
    8000140c:	00a00793          	li	a5,10
    80001410:	00f50a63          	beq	a0,a5,80001424 <putchar+0x34>
    80001414:	04000793          	li	a5,64
    80001418:	00f60663          	beq	a2,a5,80001424 <putchar+0x34>
    8000141c:	00000513          	li	a0,0
    80001420:	00008067          	ret
    80001424:	04000893          	li	a7,64
    80001428:	00100513          	li	a0,1
    8000142c:	04020593          	addi	a1,tp,64 # 40 <buf.2675>
    80001430:	00000073          	ecall
    80001434:	08022023          	sw	zero,128(tp) # 80 <buflen.2676>
    80001438:	00000513          	li	a0,0
    8000143c:	00008067          	ret

0000000080001440 <vprintfmt>:
    80001440:	e8010113          	addi	sp,sp,-384
    80001444:	17213023          	sd	s2,352(sp)
    80001448:	15313c23          	sd	s3,344(sp)
    8000144c:	15413823          	sd	s4,336(sp)
    80001450:	15513423          	sd	s5,328(sp)
    80001454:	15613023          	sd	s6,320(sp)
    80001458:	13713c23          	sd	s7,312(sp)
    8000145c:	16113c23          	sd	ra,376(sp)
    80001460:	16813823          	sd	s0,368(sp)
    80001464:	16913423          	sd	s1,360(sp)
    80001468:	13813823          	sd	s8,304(sp)
    8000146c:	13913423          	sd	s9,296(sp)
    80001470:	13a13023          	sd	s10,288(sp)
    80001474:	11b13c23          	sd	s11,280(sp)
    80001478:	00050a13          	mv	s4,a0
    8000147c:	00058993          	mv	s3,a1
    80001480:	00060913          	mv	s2,a2
    80001484:	00d13423          	sd	a3,8(sp)
    80001488:	00001b97          	auipc	s7,0x1
    8000148c:	b58b8b93          	addi	s7,s7,-1192 # 80001fe0 <main+0x108>
    80001490:	03000a93          	li	s5,48
    80001494:	05700b13          	li	s6,87
    80001498:	00094503          	lbu	a0,0(s2)
    8000149c:	02500413          	li	s0,37
    800014a0:	00850e63          	beq	a0,s0,800014bc <vprintfmt+0x7c>
    800014a4:	06050663          	beqz	a0,80001510 <vprintfmt+0xd0>
    800014a8:	00098593          	mv	a1,s3
    800014ac:	00190913          	addi	s2,s2,1
    800014b0:	000a00e7          	jalr	s4
    800014b4:	00094503          	lbu	a0,0(s2)
    800014b8:	fe8516e3          	bne	a0,s0,800014a4 <vprintfmt+0x64>
    800014bc:	00194683          	lbu	a3,1(s2)
    800014c0:	00190493          	addi	s1,s2,1
    800014c4:	fff00413          	li	s0,-1
    800014c8:	00048713          	mv	a4,s1
    800014cc:	02000d13          	li	s10,32
    800014d0:	00040c93          	mv	s9,s0
    800014d4:	00000813          	li	a6,0
    800014d8:	05500593          	li	a1,85
    800014dc:	03000313          	li	t1,48
    800014e0:	00900513          	li	a0,9
    800014e4:	02d00893          	li	a7,45
    800014e8:	fdd6879b          	addiw	a5,a3,-35
    800014ec:	0ff7fe13          	andi	t3,a5,255
    800014f0:	00170913          	addi	s2,a4,1
    800014f4:	2bc5ee63          	bltu	a1,t3,800017b0 <vprintfmt+0x370>
    800014f8:	0ff7f793          	andi	a5,a5,255
    800014fc:	00279793          	slli	a5,a5,0x2
    80001500:	017787b3          	add	a5,a5,s7
    80001504:	0007a783          	lw	a5,0(a5)
    80001508:	017787b3          	add	a5,a5,s7
    8000150c:	00078067          	jr	a5
    80001510:	17813083          	ld	ra,376(sp)
    80001514:	17013403          	ld	s0,368(sp)
    80001518:	16813483          	ld	s1,360(sp)
    8000151c:	16013903          	ld	s2,352(sp)
    80001520:	15813983          	ld	s3,344(sp)
    80001524:	15013a03          	ld	s4,336(sp)
    80001528:	14813a83          	ld	s5,328(sp)
    8000152c:	14013b03          	ld	s6,320(sp)
    80001530:	13813b83          	ld	s7,312(sp)
    80001534:	13013c03          	ld	s8,304(sp)
    80001538:	12813c83          	ld	s9,296(sp)
    8000153c:	12013d03          	ld	s10,288(sp)
    80001540:	11813d83          	ld	s11,280(sp)
    80001544:	18010113          	addi	sp,sp,384
    80001548:	00008067          	ret
    8000154c:	000cd463          	bgez	s9,80001554 <vprintfmt+0x114>
    80001550:	00000c93          	li	s9,0
    80001554:	00174683          	lbu	a3,1(a4)
    80001558:	00090713          	mv	a4,s2
    8000155c:	f8dff06f          	j	800014e8 <vprintfmt+0xa8>
    80001560:	00800d93          	li	s11,8
    80001564:	00100793          	li	a5,1
    80001568:	1d07c663          	blt	a5,a6,80001734 <vprintfmt+0x2f4>
    8000156c:	1c081463          	bnez	a6,80001734 <vprintfmt+0x2f4>
    80001570:	00813783          	ld	a5,8(sp)
    80001574:	0007e483          	lwu	s1,0(a5)
    80001578:	00878793          	addi	a5,a5,8
    8000157c:	00f13423          	sd	a5,8(sp)
    80001580:	03b4f7b3          	remu	a5,s1,s11
    80001584:	01410713          	addi	a4,sp,20
    80001588:	00100413          	li	s0,1
    8000158c:	00f12823          	sw	a5,16(sp)
    80001590:	01b4f663          	bleu	s11,s1,8000159c <vprintfmt+0x15c>
    80001594:	3000006f          	j	80001894 <vprintfmt+0x454>
    80001598:	000c0413          	mv	s0,s8
    8000159c:	03b4d4b3          	divu	s1,s1,s11
    800015a0:	00470713          	addi	a4,a4,4
    800015a4:	00140c1b          	addiw	s8,s0,1
    800015a8:	03b4f7b3          	remu	a5,s1,s11
    800015ac:	fef72e23          	sw	a5,-4(a4)
    800015b0:	ffb4f4e3          	bleu	s11,s1,80001598 <vprintfmt+0x158>
    800015b4:	fffc849b          	addiw	s1,s9,-1
    800015b8:	039c5063          	ble	s9,s8,800015d8 <vprintfmt+0x198>
    800015bc:	00098593          	mv	a1,s3
    800015c0:	000d0513          	mv	a0,s10
    800015c4:	fff4849b          	addiw	s1,s1,-1
    800015c8:	000a00e7          	jalr	s4
    800015cc:	0014879b          	addiw	a5,s1,1
    800015d0:	fefc46e3          	blt	s8,a5,800015bc <vprintfmt+0x17c>
    800015d4:	ed8052e3          	blez	s8,80001498 <vprintfmt+0x58>
    800015d8:	00241793          	slli	a5,s0,0x2
    800015dc:	11010713          	addi	a4,sp,272
    800015e0:	00f707b3          	add	a5,a4,a5
    800015e4:	f007a783          	lw	a5,-256(a5)
    800015e8:	fff4049b          	addiw	s1,s0,-1
    800015ec:	00249493          	slli	s1,s1,0x2
    800015f0:	01010713          	addi	a4,sp,16
    800015f4:	009704b3          	add	s1,a4,s1
    800015f8:	00900d13          	li	s10,9
    800015fc:	0100006f          	j	8000160c <vprintfmt+0x1cc>
    80001600:	0004a783          	lw	a5,0(s1)
    80001604:	fff4041b          	addiw	s0,s0,-1
    80001608:	ffc48493          	addi	s1,s1,-4
    8000160c:	000a8513          	mv	a0,s5
    80001610:	00fd7463          	bleu	a5,s10,80001618 <vprintfmt+0x1d8>
    80001614:	000b0513          	mv	a0,s6
    80001618:	00098593          	mv	a1,s3
    8000161c:	00f5053b          	addw	a0,a0,a5
    80001620:	000a00e7          	jalr	s4
    80001624:	fc804ee3          	bgtz	s0,80001600 <vprintfmt+0x1c0>
    80001628:	e71ff06f          	j	80001498 <vprintfmt+0x58>
    8000162c:	00098593          	mv	a1,s3
    80001630:	02500513          	li	a0,37
    80001634:	000a00e7          	jalr	s4
    80001638:	e61ff06f          	j	80001498 <vprintfmt+0x58>
    8000163c:	00813783          	ld	a5,8(sp)
    80001640:	00174683          	lbu	a3,1(a4)
    80001644:	00090713          	mv	a4,s2
    80001648:	0007a403          	lw	s0,0(a5)
    8000164c:	00878793          	addi	a5,a5,8
    80001650:	00f13423          	sd	a5,8(sp)
    80001654:	e80cdae3          	bgez	s9,800014e8 <vprintfmt+0xa8>
    80001658:	00040c93          	mv	s9,s0
    8000165c:	fff00413          	li	s0,-1
    80001660:	e89ff06f          	j	800014e8 <vprintfmt+0xa8>
    80001664:	00174683          	lbu	a3,1(a4)
    80001668:	00088d13          	mv	s10,a7
    8000166c:	00090713          	mv	a4,s2
    80001670:	e79ff06f          	j	800014e8 <vprintfmt+0xa8>
    80001674:	00174683          	lbu	a3,1(a4)
    80001678:	00030d13          	mv	s10,t1
    8000167c:	00090713          	mv	a4,s2
    80001680:	e69ff06f          	j	800014e8 <vprintfmt+0xa8>
    80001684:	00174783          	lbu	a5,1(a4)
    80001688:	fd06841b          	addiw	s0,a3,-48
    8000168c:	fd07871b          	addiw	a4,a5,-48
    80001690:	00078e13          	mv	t3,a5
    80001694:	1ee56a63          	bltu	a0,a4,80001888 <vprintfmt+0x448>
    80001698:	00090713          	mv	a4,s2
    8000169c:	00170713          	addi	a4,a4,1
    800016a0:	0024179b          	slliw	a5,s0,0x2
    800016a4:	00074683          	lbu	a3,0(a4)
    800016a8:	0087843b          	addw	s0,a5,s0
    800016ac:	0014141b          	slliw	s0,s0,0x1
    800016b0:	01c4043b          	addw	s0,s0,t3
    800016b4:	fd06879b          	addiw	a5,a3,-48
    800016b8:	fd04041b          	addiw	s0,s0,-48
    800016bc:	00068e13          	mv	t3,a3
    800016c0:	fcf57ee3          	bleu	a5,a0,8000169c <vprintfmt+0x25c>
    800016c4:	f91ff06f          	j	80001654 <vprintfmt+0x214>
    800016c8:	00813783          	ld	a5,8(sp)
    800016cc:	00098593          	mv	a1,s3
    800016d0:	0007a503          	lw	a0,0(a5)
    800016d4:	00878c13          	addi	s8,a5,8
    800016d8:	000a00e7          	jalr	s4
    800016dc:	01813423          	sd	s8,8(sp)
    800016e0:	db9ff06f          	j	80001498 <vprintfmt+0x58>
    800016e4:	00100793          	li	a5,1
    800016e8:	1507d863          	ble	a6,a5,80001838 <vprintfmt+0x3f8>
    800016ec:	00813783          	ld	a5,8(sp)
    800016f0:	0007b483          	ld	s1,0(a5)
    800016f4:	00878793          	addi	a5,a5,8
    800016f8:	00f13423          	sd	a5,8(sp)
    800016fc:	00a00d93          	li	s11,10
    80001700:	e804d0e3          	bgez	s1,80001580 <vprintfmt+0x140>
    80001704:	00098593          	mv	a1,s3
    80001708:	02d00513          	li	a0,45
    8000170c:	000a00e7          	jalr	s4
    80001710:	409004b3          	neg	s1,s1
    80001714:	e6dff06f          	j	80001580 <vprintfmt+0x140>
    80001718:	000a8513          	mv	a0,s5
    8000171c:	00098593          	mv	a1,s3
    80001720:	000a00e7          	jalr	s4
    80001724:	00098593          	mv	a1,s3
    80001728:	07800513          	li	a0,120
    8000172c:	000a00e7          	jalr	s4
    80001730:	01000d93          	li	s11,16
    80001734:	00813783          	ld	a5,8(sp)
    80001738:	0007b483          	ld	s1,0(a5)
    8000173c:	00878793          	addi	a5,a5,8
    80001740:	00f13423          	sd	a5,8(sp)
    80001744:	e3dff06f          	j	80001580 <vprintfmt+0x140>
    80001748:	00813783          	ld	a5,8(sp)
    8000174c:	0007b483          	ld	s1,0(a5)
    80001750:	00878c13          	addi	s8,a5,8
    80001754:	10048c63          	beqz	s1,8000186c <vprintfmt+0x42c>
    80001758:	09905663          	blez	s9,800017e4 <vprintfmt+0x3a4>
    8000175c:	02d00793          	li	a5,45
    80001760:	10fd0063          	beq	s10,a5,80001860 <vprintfmt+0x420>
    80001764:	14040c63          	beqz	s0,800018bc <vprintfmt+0x47c>
    80001768:	0004c783          	lbu	a5,0(s1)
    8000176c:	06078263          	beqz	a5,800017d0 <vprintfmt+0x390>
    80001770:	00148793          	addi	a5,s1,1
    80001774:	008485b3          	add	a1,s1,s0
    80001778:	04b78663          	beq	a5,a1,800017c4 <vprintfmt+0x384>
    8000177c:	00178713          	addi	a4,a5,1
    80001780:	fff74683          	lbu	a3,-1(a4)
    80001784:	04068063          	beqz	a3,800017c4 <vprintfmt+0x384>
    80001788:	00070793          	mv	a5,a4
    8000178c:	fedff06f          	j	80001778 <vprintfmt+0x338>
    80001790:	00174683          	lbu	a3,1(a4)
    80001794:	0018081b          	addiw	a6,a6,1
    80001798:	00090713          	mv	a4,s2
    8000179c:	d4dff06f          	j	800014e8 <vprintfmt+0xa8>
    800017a0:	00a00d93          	li	s11,10
    800017a4:	dc1ff06f          	j	80001564 <vprintfmt+0x124>
    800017a8:	01000d93          	li	s11,16
    800017ac:	db9ff06f          	j	80001564 <vprintfmt+0x124>
    800017b0:	00098593          	mv	a1,s3
    800017b4:	02500513          	li	a0,37
    800017b8:	000a00e7          	jalr	s4
    800017bc:	00048913          	mv	s2,s1
    800017c0:	cd9ff06f          	j	80001498 <vprintfmt+0x58>
    800017c4:	409787bb          	subw	a5,a5,s1
    800017c8:	40fc8cbb          	subw	s9,s9,a5
    800017cc:	01905c63          	blez	s9,800017e4 <vprintfmt+0x3a4>
    800017d0:	fffc8c9b          	addiw	s9,s9,-1
    800017d4:	00098593          	mv	a1,s3
    800017d8:	000d0513          	mv	a0,s10
    800017dc:	000a00e7          	jalr	s4
    800017e0:	fe0c98e3          	bnez	s9,800017d0 <vprintfmt+0x390>
    800017e4:	0004c503          	lbu	a0,0(s1)
    800017e8:	04050463          	beqz	a0,80001830 <vprintfmt+0x3f0>
    800017ec:	00044863          	bltz	s0,800017fc <vprintfmt+0x3bc>
    800017f0:	fff4041b          	addiw	s0,s0,-1
    800017f4:	fff00793          	li	a5,-1
    800017f8:	00f40e63          	beq	s0,a5,80001814 <vprintfmt+0x3d4>
    800017fc:	00098593          	mv	a1,s3
    80001800:	00148493          	addi	s1,s1,1
    80001804:	000a00e7          	jalr	s4
    80001808:	0004c503          	lbu	a0,0(s1)
    8000180c:	fffc8c9b          	addiw	s9,s9,-1
    80001810:	fc051ee3          	bnez	a0,800017ec <vprintfmt+0x3ac>
    80001814:	01905e63          	blez	s9,80001830 <vprintfmt+0x3f0>
    80001818:	02000413          	li	s0,32
    8000181c:	fffc8c9b          	addiw	s9,s9,-1
    80001820:	00098593          	mv	a1,s3
    80001824:	00040513          	mv	a0,s0
    80001828:	000a00e7          	jalr	s4
    8000182c:	fe0c98e3          	bnez	s9,8000181c <vprintfmt+0x3dc>
    80001830:	01813423          	sd	s8,8(sp)
    80001834:	c65ff06f          	j	80001498 <vprintfmt+0x58>
    80001838:	00813783          	ld	a5,8(sp)
    8000183c:	00080a63          	beqz	a6,80001850 <vprintfmt+0x410>
    80001840:	0007b483          	ld	s1,0(a5)
    80001844:	00878793          	addi	a5,a5,8
    80001848:	00f13423          	sd	a5,8(sp)
    8000184c:	eb1ff06f          	j	800016fc <vprintfmt+0x2bc>
    80001850:	0007a483          	lw	s1,0(a5)
    80001854:	00878793          	addi	a5,a5,8
    80001858:	00f13423          	sd	a5,8(sp)
    8000185c:	ea1ff06f          	j	800016fc <vprintfmt+0x2bc>
    80001860:	0004c503          	lbu	a0,0(s1)
    80001864:	f80514e3          	bnez	a0,800017ec <vprintfmt+0x3ac>
    80001868:	fb1ff06f          	j	80001818 <vprintfmt+0x3d8>
    8000186c:	05905063          	blez	s9,800018ac <vprintfmt+0x46c>
    80001870:	02d00793          	li	a5,45
    80001874:	00000497          	auipc	s1,0x0
    80001878:	72448493          	addi	s1,s1,1828 # 80001f98 <main+0xc0>
    8000187c:	02800513          	li	a0,40
    80001880:	eefd12e3          	bne	s10,a5,80001764 <vprintfmt+0x324>
    80001884:	f69ff06f          	j	800017ec <vprintfmt+0x3ac>
    80001888:	00078693          	mv	a3,a5
    8000188c:	00090713          	mv	a4,s2
    80001890:	dc5ff06f          	j	80001654 <vprintfmt+0x214>
    80001894:	00040693          	mv	a3,s0
    80001898:	fffc849b          	addiw	s1,s9,-1
    8000189c:	00000413          	li	s0,0
    800018a0:	00068c13          	mv	s8,a3
    800018a4:	d196cce3          	blt	a3,s9,800015bc <vprintfmt+0x17c>
    800018a8:	d41ff06f          	j	800015e8 <vprintfmt+0x1a8>
    800018ac:	02800513          	li	a0,40
    800018b0:	00000497          	auipc	s1,0x0
    800018b4:	6e848493          	addi	s1,s1,1768 # 80001f98 <main+0xc0>
    800018b8:	f35ff06f          	j	800017ec <vprintfmt+0x3ac>
    800018bc:	00000793          	li	a5,0
    800018c0:	f09ff06f          	j	800017c8 <vprintfmt+0x388>

00000000800018c4 <sprintf_putch.2790>:
    800018c4:	0005b783          	ld	a5,0(a1)
    800018c8:	00a78023          	sb	a0,0(a5)
    800018cc:	0005b783          	ld	a5,0(a1)
    800018d0:	00178793          	addi	a5,a5,1
    800018d4:	00f5b023          	sd	a5,0(a1)
    800018d8:	00008067          	ret

00000000800018dc <tohost_exit>:
    800018dc:	00151793          	slli	a5,a0,0x1
    800018e0:	0017e793          	ori	a5,a5,1
    800018e4:	fffff717          	auipc	a4,0xfffff
    800018e8:	70f73e23          	sd	a5,1820(a4) # 80001000 <tohost>
    800018ec:	0000006f          	j	800018ec <tohost_exit+0x10>

00000000800018f0 <handle_trap>:
    800018f0:	ff010113          	addi	sp,sp,-16
    800018f4:	00813023          	sd	s0,0(sp)
    800018f8:	00113423          	sd	ra,8(sp)
    800018fc:	00b00713          	li	a4,11
    80001900:	01010413          	addi	s0,sp,16
    80001904:	f8010113          	addi	sp,sp,-128
    80001908:	00e50c63          	beq	a0,a4,80001920 <handle_trap+0x30>
    8000190c:	000017b7          	lui	a5,0x1
    80001910:	a7378793          	addi	a5,a5,-1421 # a73 <_tbss_end+0x9ef>
    80001914:	fffff717          	auipc	a4,0xfffff
    80001918:	6ef73623          	sd	a5,1772(a4) # 80001000 <tohost>
    8000191c:	0000006f          	j	8000191c <handle_trap+0x2c>
    80001920:	08863703          	ld	a4,136(a2)
    80001924:	05d00693          	li	a3,93
    80001928:	0ed70863          	beq	a4,a3,80001a18 <handle_trap+0x128>
    8000192c:	4d200693          	li	a3,1234
    80001930:	08d71a63          	bne	a4,a3,800019c4 <handle_trap+0xd4>
    80001934:	05062703          	lw	a4,80(a2)
    80001938:	b00027f3          	csrr	a5,mcycle
    8000193c:	02071063          	bnez	a4,8000195c <handle_trap+0x6c>
    80001940:	00002697          	auipc	a3,0x2
    80001944:	8006b683          	ld	a3,-2048(a3) # 80003140 <counters>
    80001948:	40d787b3          	sub	a5,a5,a3
    8000194c:	00000697          	auipc	a3,0x0
    80001950:	65468693          	addi	a3,a3,1620 # 80001fa0 <main+0xc8>
    80001954:	00001517          	auipc	a0,0x1
    80001958:	7ed53e23          	sd	a3,2044(a0) # 80003150 <counter_names>
    8000195c:	00001697          	auipc	a3,0x1
    80001960:	7ef6b223          	sd	a5,2020(a3) # 80003140 <counters>
    80001964:	b02027f3          	csrr	a5,minstret
    80001968:	02071063          	bnez	a4,80001988 <handle_trap+0x98>
    8000196c:	00001717          	auipc	a4,0x1
    80001970:	7dc73703          	ld	a4,2012(a4) # 80003148 <counters+0x8>
    80001974:	40e787b3          	sub	a5,a5,a4
    80001978:	00000717          	auipc	a4,0x0
    8000197c:	63070713          	addi	a4,a4,1584 # 80001fa8 <main+0xd0>
    80001980:	00001697          	auipc	a3,0x1
    80001984:	7ce6bc23          	sd	a4,2008(a3) # 80003158 <counter_names+0x8>
    80001988:	00001717          	auipc	a4,0x1
    8000198c:	7cf73023          	sd	a5,1984(a4) # 80003148 <counters+0x8>
    80001990:	04063823          	sd	zero,80(a2)
    80001994:	0005d783          	lhu	a5,0(a1)
    80001998:	00300713          	li	a4,3
    8000199c:	00400513          	li	a0,4
    800019a0:	00e7f7b3          	and	a5,a5,a4
    800019a4:	00e78463          	beq	a5,a4,800019ac <handle_trap+0xbc>
    800019a8:	00200513          	li	a0,2
    800019ac:	ff040113          	addi	sp,s0,-16
    800019b0:	00813083          	ld	ra,8(sp)
    800019b4:	00b50533          	add	a0,a0,a1
    800019b8:	00013403          	ld	s0,0(sp)
    800019bc:	01010113          	addi	sp,sp,16
    800019c0:	00008067          	ret
    800019c4:	05063503          	ld	a0,80(a2)
    800019c8:	03f10793          	addi	a5,sp,63
    800019cc:	fc07f793          	andi	a5,a5,-64
    800019d0:	05863683          	ld	a3,88(a2)
    800019d4:	00e7b023          	sd	a4,0(a5)
    800019d8:	06063703          	ld	a4,96(a2)
    800019dc:	00a7b423          	sd	a0,8(a5)
    800019e0:	00d7b823          	sd	a3,16(a5)
    800019e4:	00e7bc23          	sd	a4,24(a5)
    800019e8:	0330000f          	fence	rw,rw
    800019ec:	fffff717          	auipc	a4,0xfffff
    800019f0:	60f73a23          	sd	a5,1556(a4) # 80001000 <tohost>
    800019f4:	fffff717          	auipc	a4,0xfffff
    800019f8:	64c73703          	ld	a4,1612(a4) # 80001040 <fromhost>
    800019fc:	fe070ce3          	beqz	a4,800019f4 <handle_trap+0x104>
    80001a00:	fffff717          	auipc	a4,0xfffff
    80001a04:	64073023          	sd	zero,1600(a4) # 80001040 <fromhost>
    80001a08:	0330000f          	fence	rw,rw
    80001a0c:	0007b783          	ld	a5,0(a5)
    80001a10:	04f63823          	sd	a5,80(a2)
    80001a14:	f81ff06f          	j	80001994 <handle_trap+0xa4>
    80001a18:	05063503          	ld	a0,80(a2)
    80001a1c:	ec1ff0ef          	jal	800018dc <tohost_exit>

0000000080001a20 <exit>:
    80001a20:	05d00893          	li	a7,93
    80001a24:	00000593          	li	a1,0
    80001a28:	00000613          	li	a2,0
    80001a2c:	00000073          	ecall
    80001a30:	0000006f          	j	80001a30 <exit+0x10>

0000000080001a34 <setStats>:
    80001a34:	4d200893          	li	a7,1234
    80001a38:	00000593          	li	a1,0
    80001a3c:	00000613          	li	a2,0
    80001a40:	00000073          	ecall
    80001a44:	00008067          	ret

0000000080001a48 <printstr>:
    80001a48:	00054783          	lbu	a5,0(a0)
    80001a4c:	00050593          	mv	a1,a0
    80001a50:	02078463          	beqz	a5,80001a78 <printstr+0x30>
    80001a54:	00050613          	mv	a2,a0
    80001a58:	00160613          	addi	a2,a2,1
    80001a5c:	00064783          	lbu	a5,0(a2)
    80001a60:	fe079ce3          	bnez	a5,80001a58 <printstr+0x10>
    80001a64:	40b60633          	sub	a2,a2,a1
    80001a68:	04000893          	li	a7,64
    80001a6c:	00100513          	li	a0,1
    80001a70:	00000073          	ecall
    80001a74:	00008067          	ret
    80001a78:	00000613          	li	a2,0
    80001a7c:	fedff06f          	j	80001a68 <printstr+0x20>
    80001a80:	00050463          	beqz	a0,80001a88 <printstr+0x40>
    80001a84:	0000006f          	j	80001a84 <printstr+0x3c>
    80001a88:	00008067          	ret

0000000080001a8c <printhex>:
    80001a8c:	fe010113          	addi	sp,sp,-32
    80001a90:	01710713          	addi	a4,sp,23
    80001a94:	00710893          	addi	a7,sp,7
    80001a98:	00900813          	li	a6,9
    80001a9c:	05700593          	li	a1,87
    80001aa0:	03000313          	li	t1,48
    80001aa4:	00f57693          	andi	a3,a0,15
    80001aa8:	00068613          	mv	a2,a3
    80001aac:	00058793          	mv	a5,a1
    80001ab0:	00d86463          	bltu	a6,a3,80001ab8 <printhex+0x2c>
    80001ab4:	00030793          	mv	a5,t1
    80001ab8:	00c787bb          	addw	a5,a5,a2
    80001abc:	00f70023          	sb	a5,0(a4)
    80001ac0:	fff70713          	addi	a4,a4,-1
    80001ac4:	00455513          	srli	a0,a0,0x4
    80001ac8:	fce89ee3          	bne	a7,a4,80001aa4 <printhex+0x18>
    80001acc:	00814783          	lbu	a5,8(sp)
    80001ad0:	00010c23          	sb	zero,24(sp)
    80001ad4:	00810593          	addi	a1,sp,8
    80001ad8:	02078663          	beqz	a5,80001b04 <printhex+0x78>
    80001adc:	00058613          	mv	a2,a1
    80001ae0:	00160613          	addi	a2,a2,1
    80001ae4:	00064783          	lbu	a5,0(a2)
    80001ae8:	fe079ce3          	bnez	a5,80001ae0 <printhex+0x54>
    80001aec:	40b60633          	sub	a2,a2,a1
    80001af0:	04000893          	li	a7,64
    80001af4:	00100513          	li	a0,1
    80001af8:	00000073          	ecall
    80001afc:	02010113          	addi	sp,sp,32
    80001b00:	00008067          	ret
    80001b04:	00000613          	li	a2,0
    80001b08:	fe9ff06f          	j	80001af0 <printhex+0x64>

0000000080001b0c <printf>:
    80001b0c:	fa010113          	addi	sp,sp,-96
    80001b10:	02810313          	addi	t1,sp,40
    80001b14:	02b13423          	sd	a1,40(sp)
    80001b18:	02c13823          	sd	a2,48(sp)
    80001b1c:	02d13c23          	sd	a3,56(sp)
    80001b20:	00050613          	mv	a2,a0
    80001b24:	00030693          	mv	a3,t1
    80001b28:	00000517          	auipc	a0,0x0
    80001b2c:	8c850513          	addi	a0,a0,-1848 # 800013f0 <putchar>
    80001b30:	00000593          	li	a1,0
    80001b34:	00113c23          	sd	ra,24(sp)
    80001b38:	04e13023          	sd	a4,64(sp)
    80001b3c:	04f13423          	sd	a5,72(sp)
    80001b40:	05013823          	sd	a6,80(sp)
    80001b44:	05113c23          	sd	a7,88(sp)
    80001b48:	00613423          	sd	t1,8(sp)
    80001b4c:	8f5ff0ef          	jal	80001440 <vprintfmt>
    80001b50:	01813083          	ld	ra,24(sp)
    80001b54:	00000513          	li	a0,0
    80001b58:	06010113          	addi	sp,sp,96
    80001b5c:	00008067          	ret

0000000080001b60 <sprintf>:
    80001b60:	fa010113          	addi	sp,sp,-96
    80001b64:	03010313          	addi	t1,sp,48
    80001b68:	02813023          	sd	s0,32(sp)
    80001b6c:	00a13423          	sd	a0,8(sp)
    80001b70:	02c13823          	sd	a2,48(sp)
    80001b74:	02d13c23          	sd	a3,56(sp)
    80001b78:	00050413          	mv	s0,a0
    80001b7c:	00058613          	mv	a2,a1
    80001b80:	00000517          	auipc	a0,0x0
    80001b84:	d4450513          	addi	a0,a0,-700 # 800018c4 <sprintf_putch.2790>
    80001b88:	00810593          	addi	a1,sp,8
    80001b8c:	00030693          	mv	a3,t1
    80001b90:	02113423          	sd	ra,40(sp)
    80001b94:	04f13423          	sd	a5,72(sp)
    80001b98:	04e13023          	sd	a4,64(sp)
    80001b9c:	05013823          	sd	a6,80(sp)
    80001ba0:	05113c23          	sd	a7,88(sp)
    80001ba4:	00613c23          	sd	t1,24(sp)
    80001ba8:	899ff0ef          	jal	80001440 <vprintfmt>
    80001bac:	00813783          	ld	a5,8(sp)
    80001bb0:	00078023          	sb	zero,0(a5)
    80001bb4:	00813503          	ld	a0,8(sp)
    80001bb8:	02813083          	ld	ra,40(sp)
    80001bbc:	4085053b          	subw	a0,a0,s0
    80001bc0:	02013403          	ld	s0,32(sp)
    80001bc4:	06010113          	addi	sp,sp,96
    80001bc8:	00008067          	ret

0000000080001bcc <memcpy>:
    80001bcc:	00c5e7b3          	or	a5,a1,a2
    80001bd0:	00f567b3          	or	a5,a0,a5
    80001bd4:	0077f793          	andi	a5,a5,7
    80001bd8:	00c50633          	add	a2,a0,a2
    80001bdc:	02078263          	beqz	a5,80001c00 <memcpy+0x34>
    80001be0:	00050793          	mv	a5,a0
    80001be4:	02c57e63          	bleu	a2,a0,80001c20 <memcpy+0x54>
    80001be8:	00158593          	addi	a1,a1,1
    80001bec:	fff5c703          	lbu	a4,-1(a1)
    80001bf0:	00178793          	addi	a5,a5,1
    80001bf4:	fee78fa3          	sb	a4,-1(a5)
    80001bf8:	fec798e3          	bne	a5,a2,80001be8 <memcpy+0x1c>
    80001bfc:	00008067          	ret
    80001c00:	fec57ee3          	bleu	a2,a0,80001bfc <memcpy+0x30>
    80001c04:	00050793          	mv	a5,a0
    80001c08:	00858593          	addi	a1,a1,8
    80001c0c:	ff85b703          	ld	a4,-8(a1)
    80001c10:	00878793          	addi	a5,a5,8
    80001c14:	fee7bc23          	sd	a4,-8(a5)
    80001c18:	fec7e8e3          	bltu	a5,a2,80001c08 <memcpy+0x3c>
    80001c1c:	00008067          	ret
    80001c20:	00008067          	ret

0000000080001c24 <memset>:
    80001c24:	00c567b3          	or	a5,a0,a2
    80001c28:	0077f793          	andi	a5,a5,7
    80001c2c:	02078263          	beqz	a5,80001c50 <memset+0x2c>
    80001c30:	00c50633          	add	a2,a0,a2
    80001c34:	0ff5f593          	andi	a1,a1,255
    80001c38:	00050793          	mv	a5,a0
    80001c3c:	04c57663          	bleu	a2,a0,80001c88 <memset+0x64>
    80001c40:	00178793          	addi	a5,a5,1
    80001c44:	feb78fa3          	sb	a1,-1(a5)
    80001c48:	fec79ce3          	bne	a5,a2,80001c40 <memset+0x1c>
    80001c4c:	00008067          	ret
    80001c50:	0ff5f713          	andi	a4,a1,255
    80001c54:	00871593          	slli	a1,a4,0x8
    80001c58:	00b76733          	or	a4,a4,a1
    80001c5c:	01071793          	slli	a5,a4,0x10
    80001c60:	00f76733          	or	a4,a4,a5
    80001c64:	02071793          	slli	a5,a4,0x20
    80001c68:	00c50633          	add	a2,a0,a2
    80001c6c:	00f76733          	or	a4,a4,a5
    80001c70:	fcc57ee3          	bleu	a2,a0,80001c4c <memset+0x28>
    80001c74:	00050793          	mv	a5,a0
    80001c78:	00878793          	addi	a5,a5,8
    80001c7c:	fee7bc23          	sd	a4,-8(a5)
    80001c80:	fec7ece3          	bltu	a5,a2,80001c78 <memset+0x54>
    80001c84:	00008067          	ret
    80001c88:	00008067          	ret

0000000080001c8c <_init>:
    80001c8c:	fb010113          	addi	sp,sp,-80
    80001c90:	02913c23          	sd	s1,56(sp)
    80001c94:	03313423          	sd	s3,40(sp)
    80001c98:	00020993          	mv	s3,tp
    80001c9c:	00020493          	mv	s1,tp
    80001ca0:	409984b3          	sub	s1,s3,s1
    80001ca4:	04113423          	sd	ra,72(sp)
    80001ca8:	04813023          	sd	s0,64(sp)
    80001cac:	03213823          	sd	s2,48(sp)
    80001cb0:	05010413          	addi	s0,sp,80
    80001cb4:	03413023          	sd	s4,32(sp)
    80001cb8:	01513c23          	sd	s5,24(sp)
    80001cbc:	01613823          	sd	s6,16(sp)
    80001cc0:	01713423          	sd	s7,8(sp)
    80001cc4:	00050a13          	mv	s4,a0
    80001cc8:	f8010113          	addi	sp,sp,-128
    80001ccc:	00020513          	mv	a0,tp
    80001cd0:	00058a93          	mv	s5,a1
    80001cd4:	00048613          	mv	a2,s1
    80001cd8:	00001597          	auipc	a1,0x1
    80001cdc:	4a858593          	addi	a1,a1,1192 # 80003180 <_end>
    80001ce0:	00020b13          	mv	s6,tp
    80001ce4:	ee9ff0ef          	jal	80001bcc <memcpy>
    80001ce8:	08420613          	addi	a2,tp,132 # 84 <_tbss_end>
    80001cec:	41360633          	sub	a2,a2,s3
    80001cf0:	009b0533          	add	a0,s6,s1
    80001cf4:	00000593          	li	a1,0
    80001cf8:	f2dff0ef          	jal	80001c24 <memset>
    80001cfc:	000a8593          	mv	a1,s5
    80001d00:	000a0513          	mv	a0,s4
    80001d04:	b9cff0ef          	jal	800010a0 <thread_entry>
    80001d08:	03f10913          	addi	s2,sp,63
    80001d0c:	00000593          	li	a1,0
    80001d10:	00000513          	li	a0,0
    80001d14:	fc097913          	andi	s2,s2,-64
    80001d18:	00001997          	auipc	s3,0x1
    80001d1c:	43898993          	addi	s3,s3,1080 # 80003150 <counter_names>
    80001d20:	1b8000ef          	jal	80001ed8 <main>
    80001d24:	00050b13          	mv	s6,a0
    80001d28:	00001497          	auipc	s1,0x1
    80001d2c:	41848493          	addi	s1,s1,1048 # 80003140 <counters>
    80001d30:	00098a93          	mv	s5,s3
    80001d34:	00090a13          	mv	s4,s2
    80001d38:	00000b97          	auipc	s7,0x0
    80001d3c:	298b8b93          	addi	s7,s7,664 # 80001fd0 <main+0xf8>
    80001d40:	0004b683          	ld	a3,0(s1)
    80001d44:	04069463          	bnez	a3,80001d8c <_init+0x100>
    80001d48:	00848493          	addi	s1,s1,8
    80001d4c:	00898993          	addi	s3,s3,8
    80001d50:	ff5498e3          	bne	s1,s5,80001d40 <_init+0xb4>
    80001d54:	03490863          	beq	s2,s4,80001d84 <_init+0xf8>
    80001d58:	00094783          	lbu	a5,0(s2)
    80001d5c:	00090613          	mv	a2,s2
    80001d60:	00078863          	beqz	a5,80001d70 <_init+0xe4>
    80001d64:	00160613          	addi	a2,a2,1
    80001d68:	00064783          	lbu	a5,0(a2)
    80001d6c:	fe079ce3          	bnez	a5,80001d64 <_init+0xd8>
    80001d70:	04000893          	li	a7,64
    80001d74:	00100513          	li	a0,1
    80001d78:	00090593          	mv	a1,s2
    80001d7c:	41260633          	sub	a2,a2,s2
    80001d80:	00000073          	ecall
    80001d84:	000b0513          	mv	a0,s6
    80001d88:	c99ff0ef          	jal	80001a20 <exit>
    80001d8c:	0009b603          	ld	a2,0(s3)
    80001d90:	000a0513          	mv	a0,s4
    80001d94:	000b8593          	mv	a1,s7
    80001d98:	dc9ff0ef          	jal	80001b60 <sprintf>
    80001d9c:	00aa0a33          	add	s4,s4,a0
    80001da0:	fa9ff06f          	j	80001d48 <_init+0xbc>

0000000080001da4 <strlen>:
    80001da4:	00054783          	lbu	a5,0(a0)
    80001da8:	00078e63          	beqz	a5,80001dc4 <strlen+0x20>
    80001dac:	00050793          	mv	a5,a0
    80001db0:	00178793          	addi	a5,a5,1
    80001db4:	0007c703          	lbu	a4,0(a5)
    80001db8:	fe071ce3          	bnez	a4,80001db0 <strlen+0xc>
    80001dbc:	40a78533          	sub	a0,a5,a0
    80001dc0:	00008067          	ret
    80001dc4:	00000513          	li	a0,0
    80001dc8:	00008067          	ret

0000000080001dcc <strnlen>:
    80001dcc:	02058863          	beqz	a1,80001dfc <strnlen+0x30>
    80001dd0:	00054783          	lbu	a5,0(a0)
    80001dd4:	02078463          	beqz	a5,80001dfc <strnlen+0x30>
    80001dd8:	00b505b3          	add	a1,a0,a1
    80001ddc:	00050793          	mv	a5,a0
    80001de0:	00c0006f          	j	80001dec <strnlen+0x20>
    80001de4:	0007c703          	lbu	a4,0(a5)
    80001de8:	00070663          	beqz	a4,80001df4 <strnlen+0x28>
    80001dec:	00178793          	addi	a5,a5,1
    80001df0:	feb79ae3          	bne	a5,a1,80001de4 <strnlen+0x18>
    80001df4:	40a78533          	sub	a0,a5,a0
    80001df8:	00008067          	ret
    80001dfc:	00000513          	li	a0,0
    80001e00:	00008067          	ret

0000000080001e04 <strcmp>:
    80001e04:	00150513          	addi	a0,a0,1
    80001e08:	fff54783          	lbu	a5,-1(a0)
    80001e0c:	00158593          	addi	a1,a1,1
    80001e10:	fff5c703          	lbu	a4,-1(a1)
    80001e14:	00078863          	beqz	a5,80001e24 <strcmp+0x20>
    80001e18:	fee786e3          	beq	a5,a4,80001e04 <strcmp>
    80001e1c:	40e7853b          	subw	a0,a5,a4
    80001e20:	00008067          	ret
    80001e24:	00000793          	li	a5,0
    80001e28:	ff5ff06f          	j	80001e1c <strcmp+0x18>

0000000080001e2c <strcpy>:
    80001e2c:	00050793          	mv	a5,a0
    80001e30:	00158593          	addi	a1,a1,1
    80001e34:	fff5c703          	lbu	a4,-1(a1)
    80001e38:	00178793          	addi	a5,a5,1
    80001e3c:	fee78fa3          	sb	a4,-1(a5)
    80001e40:	fe0718e3          	bnez	a4,80001e30 <strcpy+0x4>
    80001e44:	00008067          	ret

0000000080001e48 <atol>:
    80001e48:	00054703          	lbu	a4,0(a0)
    80001e4c:	02000693          	li	a3,32
    80001e50:	00050793          	mv	a5,a0
    80001e54:	00d71a63          	bne	a4,a3,80001e68 <atol+0x20>
    80001e58:	00070693          	mv	a3,a4
    80001e5c:	00178793          	addi	a5,a5,1
    80001e60:	0007c703          	lbu	a4,0(a5)
    80001e64:	fed70ce3          	beq	a4,a3,80001e5c <atol+0x14>
    80001e68:	fd57069b          	addiw	a3,a4,-43
    80001e6c:	0fd6f693          	andi	a3,a3,253
    80001e70:	04068263          	beqz	a3,80001eb4 <atol+0x6c>
    80001e74:	0007c683          	lbu	a3,0(a5)
    80001e78:	00000613          	li	a2,0
    80001e7c:	04068a63          	beqz	a3,80001ed0 <atol+0x88>
    80001e80:	00000713          	li	a4,0
    80001e84:	00178793          	addi	a5,a5,1
    80001e88:	00271513          	slli	a0,a4,0x2
    80001e8c:	fd06859b          	addiw	a1,a3,-48
    80001e90:	0007c683          	lbu	a3,0(a5)
    80001e94:	00e50533          	add	a0,a0,a4
    80001e98:	00151513          	slli	a0,a0,0x1
    80001e9c:	00a58733          	add	a4,a1,a0
    80001ea0:	fe0692e3          	bnez	a3,80001e84 <atol+0x3c>
    80001ea4:	00060463          	beqz	a2,80001eac <atol+0x64>
    80001ea8:	40e00733          	neg	a4,a4
    80001eac:	00070513          	mv	a0,a4
    80001eb0:	00008067          	ret
    80001eb4:	0017c683          	lbu	a3,1(a5)
    80001eb8:	fd37071b          	addiw	a4,a4,-45
    80001ebc:	00173613          	seqz	a2,a4
    80001ec0:	00178793          	addi	a5,a5,1
    80001ec4:	fa069ee3          	bnez	a3,80001e80 <atol+0x38>
    80001ec8:	00000713          	li	a4,0
    80001ecc:	fd9ff06f          	j	80001ea4 <atol+0x5c>
    80001ed0:	00000713          	li	a4,0
    80001ed4:	fd9ff06f          	j	80001eac <atol+0x64>

Disassembly of section .text.startup:

0000000080001ed8 <main>:
    80001ed8:	00000617          	auipc	a2,0x0
    80001edc:	0e060613          	addi	a2,a2,224 # 80001fb8 <main+0xe0>
    80001ee0:	00060793          	mv	a5,a2
    80001ee4:	00178793          	addi	a5,a5,1
    80001ee8:	0007c703          	lbu	a4,0(a5)
    80001eec:	fe071ce3          	bnez	a4,80001ee4 <main+0xc>
    80001ef0:	04000893          	li	a7,64
    80001ef4:	00100513          	li	a0,1
    80001ef8:	00000597          	auipc	a1,0x0
    80001efc:	0c058593          	addi	a1,a1,192 # 80001fb8 <main+0xe0>
    80001f00:	40c78633          	sub	a2,a5,a2
    80001f04:	00000073          	ecall
    80001f08:	fff00513          	li	a0,-1
    80001f0c:	00008067          	ret
