
multiply.riscv:     file format elf64-littleriscv


Disassembly of section .text:

0000000080001048 <multiply>:
    80001048:	00050693          	mv	a3,a0
    8000104c:	02000713          	li	a4,32
    80001050:	00000513          	li	a0,0
    80001054:	0016f793          	andi	a5,a3,1
    80001058:	fff7071b          	addiw	a4,a4,-1
    8000105c:	00078463          	beqz	a5,80001064 <multiply+0x1c>
    80001060:	00b5053b          	addw	a0,a0,a1
    80001064:	4016d69b          	sraiw	a3,a3,0x1
    80001068:	0015959b          	slliw	a1,a1,0x1
    8000106c:	fe0714e3          	bnez	a4,80001054 <multiply+0xc>
    80001070:	00008067          	ret

0000000080001074 <putchar>:
    80001074:	04022603          	lw	a2,64(tp) # 40 <buflen.2676>
    80001078:	00060813          	mv	a6,a2
    8000107c:	00020793          	mv	a5,tp
    80001080:	010787b3          	add	a5,a5,a6
    80001084:	0016061b          	addiw	a2,a2,1
    80001088:	00a78023          	sb	a0,0(a5)
    8000108c:	04c22023          	sw	a2,64(tp) # 40 <buflen.2676>
    80001090:	00a00793          	li	a5,10
    80001094:	00f50a63          	beq	a0,a5,800010a8 <putchar+0x34>
    80001098:	04000793          	li	a5,64
    8000109c:	00f60663          	beq	a2,a5,800010a8 <putchar+0x34>
    800010a0:	00000513          	li	a0,0
    800010a4:	00008067          	ret
    800010a8:	04000893          	li	a7,64
    800010ac:	00100513          	li	a0,1
    800010b0:	00020593          	mv	a1,tp
    800010b4:	00000073          	ecall
    800010b8:	04022023          	sw	zero,64(tp) # 40 <buflen.2676>
    800010bc:	00000513          	li	a0,0
    800010c0:	00008067          	ret

00000000800010c4 <vprintfmt>:
    800010c4:	e8010113          	addi	sp,sp,-384
    800010c8:	17213023          	sd	s2,352(sp)
    800010cc:	15313c23          	sd	s3,344(sp)
    800010d0:	15413823          	sd	s4,336(sp)
    800010d4:	15513423          	sd	s5,328(sp)
    800010d8:	15613023          	sd	s6,320(sp)
    800010dc:	13713c23          	sd	s7,312(sp)
    800010e0:	16113c23          	sd	ra,376(sp)
    800010e4:	16813823          	sd	s0,368(sp)
    800010e8:	16913423          	sd	s1,360(sp)
    800010ec:	13813823          	sd	s8,304(sp)
    800010f0:	13913423          	sd	s9,296(sp)
    800010f4:	13a13023          	sd	s10,288(sp)
    800010f8:	11b13c23          	sd	s11,280(sp)
    800010fc:	00050a13          	mv	s4,a0
    80001100:	00058993          	mv	s3,a1
    80001104:	00060913          	mv	s2,a2
    80001108:	00d13423          	sd	a3,8(sp)
    8000110c:	00001b97          	auipc	s7,0x1
    80001110:	ba0b8b93          	addi	s7,s7,-1120 # 80001cac <main+0x150>
    80001114:	03000a93          	li	s5,48
    80001118:	05700b13          	li	s6,87
    8000111c:	00094503          	lbu	a0,0(s2)
    80001120:	02500413          	li	s0,37
    80001124:	00850e63          	beq	a0,s0,80001140 <vprintfmt+0x7c>
    80001128:	06050663          	beqz	a0,80001194 <vprintfmt+0xd0>
    8000112c:	00098593          	mv	a1,s3
    80001130:	00190913          	addi	s2,s2,1
    80001134:	000a00e7          	jalr	s4
    80001138:	00094503          	lbu	a0,0(s2)
    8000113c:	fe8516e3          	bne	a0,s0,80001128 <vprintfmt+0x64>
    80001140:	00194683          	lbu	a3,1(s2)
    80001144:	00190493          	addi	s1,s2,1
    80001148:	fff00413          	li	s0,-1
    8000114c:	00048713          	mv	a4,s1
    80001150:	02000d13          	li	s10,32
    80001154:	00040c93          	mv	s9,s0
    80001158:	00000813          	li	a6,0
    8000115c:	05500593          	li	a1,85
    80001160:	03000313          	li	t1,48
    80001164:	00900513          	li	a0,9
    80001168:	02d00893          	li	a7,45
    8000116c:	fdd6879b          	addiw	a5,a3,-35
    80001170:	0ff7fe13          	andi	t3,a5,255
    80001174:	00170913          	addi	s2,a4,1
    80001178:	2bc5ee63          	bltu	a1,t3,80001434 <vprintfmt+0x370>
    8000117c:	0ff7f793          	andi	a5,a5,255
    80001180:	00279793          	slli	a5,a5,0x2
    80001184:	017787b3          	add	a5,a5,s7
    80001188:	0007a783          	lw	a5,0(a5)
    8000118c:	017787b3          	add	a5,a5,s7
    80001190:	00078067          	jr	a5
    80001194:	17813083          	ld	ra,376(sp)
    80001198:	17013403          	ld	s0,368(sp)
    8000119c:	16813483          	ld	s1,360(sp)
    800011a0:	16013903          	ld	s2,352(sp)
    800011a4:	15813983          	ld	s3,344(sp)
    800011a8:	15013a03          	ld	s4,336(sp)
    800011ac:	14813a83          	ld	s5,328(sp)
    800011b0:	14013b03          	ld	s6,320(sp)
    800011b4:	13813b83          	ld	s7,312(sp)
    800011b8:	13013c03          	ld	s8,304(sp)
    800011bc:	12813c83          	ld	s9,296(sp)
    800011c0:	12013d03          	ld	s10,288(sp)
    800011c4:	11813d83          	ld	s11,280(sp)
    800011c8:	18010113          	addi	sp,sp,384
    800011cc:	00008067          	ret
    800011d0:	000cd463          	bgez	s9,800011d8 <vprintfmt+0x114>
    800011d4:	00000c93          	li	s9,0
    800011d8:	00174683          	lbu	a3,1(a4)
    800011dc:	00090713          	mv	a4,s2
    800011e0:	f8dff06f          	j	8000116c <vprintfmt+0xa8>
    800011e4:	00800d93          	li	s11,8
    800011e8:	00100793          	li	a5,1
    800011ec:	1d07c663          	blt	a5,a6,800013b8 <vprintfmt+0x2f4>
    800011f0:	1c081463          	bnez	a6,800013b8 <vprintfmt+0x2f4>
    800011f4:	00813783          	ld	a5,8(sp)
    800011f8:	0007e483          	lwu	s1,0(a5)
    800011fc:	00878793          	addi	a5,a5,8
    80001200:	00f13423          	sd	a5,8(sp)
    80001204:	03b4f7b3          	remu	a5,s1,s11
    80001208:	01410713          	addi	a4,sp,20
    8000120c:	00100413          	li	s0,1
    80001210:	00f12823          	sw	a5,16(sp)
    80001214:	01b4f663          	bleu	s11,s1,80001220 <vprintfmt+0x15c>
    80001218:	3000006f          	j	80001518 <vprintfmt+0x454>
    8000121c:	000c0413          	mv	s0,s8
    80001220:	03b4d4b3          	divu	s1,s1,s11
    80001224:	00470713          	addi	a4,a4,4
    80001228:	00140c1b          	addiw	s8,s0,1
    8000122c:	03b4f7b3          	remu	a5,s1,s11
    80001230:	fef72e23          	sw	a5,-4(a4)
    80001234:	ffb4f4e3          	bleu	s11,s1,8000121c <vprintfmt+0x158>
    80001238:	fffc849b          	addiw	s1,s9,-1
    8000123c:	039c5063          	ble	s9,s8,8000125c <vprintfmt+0x198>
    80001240:	00098593          	mv	a1,s3
    80001244:	000d0513          	mv	a0,s10
    80001248:	fff4849b          	addiw	s1,s1,-1
    8000124c:	000a00e7          	jalr	s4
    80001250:	0014879b          	addiw	a5,s1,1
    80001254:	fefc46e3          	blt	s8,a5,80001240 <vprintfmt+0x17c>
    80001258:	ed8052e3          	blez	s8,8000111c <vprintfmt+0x58>
    8000125c:	00241793          	slli	a5,s0,0x2
    80001260:	11010713          	addi	a4,sp,272
    80001264:	00f707b3          	add	a5,a4,a5
    80001268:	f007a783          	lw	a5,-256(a5)
    8000126c:	fff4049b          	addiw	s1,s0,-1
    80001270:	00249493          	slli	s1,s1,0x2
    80001274:	01010713          	addi	a4,sp,16
    80001278:	009704b3          	add	s1,a4,s1
    8000127c:	00900d13          	li	s10,9
    80001280:	0100006f          	j	80001290 <vprintfmt+0x1cc>
    80001284:	0004a783          	lw	a5,0(s1)
    80001288:	fff4041b          	addiw	s0,s0,-1
    8000128c:	ffc48493          	addi	s1,s1,-4
    80001290:	000a8513          	mv	a0,s5
    80001294:	00fd7463          	bleu	a5,s10,8000129c <vprintfmt+0x1d8>
    80001298:	000b0513          	mv	a0,s6
    8000129c:	00098593          	mv	a1,s3
    800012a0:	00f5053b          	addw	a0,a0,a5
    800012a4:	000a00e7          	jalr	s4
    800012a8:	fc804ee3          	bgtz	s0,80001284 <vprintfmt+0x1c0>
    800012ac:	e71ff06f          	j	8000111c <vprintfmt+0x58>
    800012b0:	00098593          	mv	a1,s3
    800012b4:	02500513          	li	a0,37
    800012b8:	000a00e7          	jalr	s4
    800012bc:	e61ff06f          	j	8000111c <vprintfmt+0x58>
    800012c0:	00813783          	ld	a5,8(sp)
    800012c4:	00174683          	lbu	a3,1(a4)
    800012c8:	00090713          	mv	a4,s2
    800012cc:	0007a403          	lw	s0,0(a5)
    800012d0:	00878793          	addi	a5,a5,8
    800012d4:	00f13423          	sd	a5,8(sp)
    800012d8:	e80cdae3          	bgez	s9,8000116c <vprintfmt+0xa8>
    800012dc:	00040c93          	mv	s9,s0
    800012e0:	fff00413          	li	s0,-1
    800012e4:	e89ff06f          	j	8000116c <vprintfmt+0xa8>
    800012e8:	00174683          	lbu	a3,1(a4)
    800012ec:	00088d13          	mv	s10,a7
    800012f0:	00090713          	mv	a4,s2
    800012f4:	e79ff06f          	j	8000116c <vprintfmt+0xa8>
    800012f8:	00174683          	lbu	a3,1(a4)
    800012fc:	00030d13          	mv	s10,t1
    80001300:	00090713          	mv	a4,s2
    80001304:	e69ff06f          	j	8000116c <vprintfmt+0xa8>
    80001308:	00174783          	lbu	a5,1(a4)
    8000130c:	fd06841b          	addiw	s0,a3,-48
    80001310:	fd07871b          	addiw	a4,a5,-48
    80001314:	00078e13          	mv	t3,a5
    80001318:	1ee56a63          	bltu	a0,a4,8000150c <vprintfmt+0x448>
    8000131c:	00090713          	mv	a4,s2
    80001320:	00170713          	addi	a4,a4,1
    80001324:	0024179b          	slliw	a5,s0,0x2
    80001328:	00074683          	lbu	a3,0(a4)
    8000132c:	0087843b          	addw	s0,a5,s0
    80001330:	0014141b          	slliw	s0,s0,0x1
    80001334:	01c4043b          	addw	s0,s0,t3
    80001338:	fd06879b          	addiw	a5,a3,-48
    8000133c:	fd04041b          	addiw	s0,s0,-48
    80001340:	00068e13          	mv	t3,a3
    80001344:	fcf57ee3          	bleu	a5,a0,80001320 <vprintfmt+0x25c>
    80001348:	f91ff06f          	j	800012d8 <vprintfmt+0x214>
    8000134c:	00813783          	ld	a5,8(sp)
    80001350:	00098593          	mv	a1,s3
    80001354:	0007a503          	lw	a0,0(a5)
    80001358:	00878c13          	addi	s8,a5,8
    8000135c:	000a00e7          	jalr	s4
    80001360:	01813423          	sd	s8,8(sp)
    80001364:	db9ff06f          	j	8000111c <vprintfmt+0x58>
    80001368:	00100793          	li	a5,1
    8000136c:	1507d863          	ble	a6,a5,800014bc <vprintfmt+0x3f8>
    80001370:	00813783          	ld	a5,8(sp)
    80001374:	0007b483          	ld	s1,0(a5)
    80001378:	00878793          	addi	a5,a5,8
    8000137c:	00f13423          	sd	a5,8(sp)
    80001380:	00a00d93          	li	s11,10
    80001384:	e804d0e3          	bgez	s1,80001204 <vprintfmt+0x140>
    80001388:	00098593          	mv	a1,s3
    8000138c:	02d00513          	li	a0,45
    80001390:	000a00e7          	jalr	s4
    80001394:	409004b3          	neg	s1,s1
    80001398:	e6dff06f          	j	80001204 <vprintfmt+0x140>
    8000139c:	000a8513          	mv	a0,s5
    800013a0:	00098593          	mv	a1,s3
    800013a4:	000a00e7          	jalr	s4
    800013a8:	00098593          	mv	a1,s3
    800013ac:	07800513          	li	a0,120
    800013b0:	000a00e7          	jalr	s4
    800013b4:	01000d93          	li	s11,16
    800013b8:	00813783          	ld	a5,8(sp)
    800013bc:	0007b483          	ld	s1,0(a5)
    800013c0:	00878793          	addi	a5,a5,8
    800013c4:	00f13423          	sd	a5,8(sp)
    800013c8:	e3dff06f          	j	80001204 <vprintfmt+0x140>
    800013cc:	00813783          	ld	a5,8(sp)
    800013d0:	0007b483          	ld	s1,0(a5)
    800013d4:	00878c13          	addi	s8,a5,8
    800013d8:	10048c63          	beqz	s1,800014f0 <vprintfmt+0x42c>
    800013dc:	09905663          	blez	s9,80001468 <vprintfmt+0x3a4>
    800013e0:	02d00793          	li	a5,45
    800013e4:	10fd0063          	beq	s10,a5,800014e4 <vprintfmt+0x420>
    800013e8:	14040c63          	beqz	s0,80001540 <vprintfmt+0x47c>
    800013ec:	0004c783          	lbu	a5,0(s1)
    800013f0:	06078263          	beqz	a5,80001454 <vprintfmt+0x390>
    800013f4:	00148793          	addi	a5,s1,1
    800013f8:	008485b3          	add	a1,s1,s0
    800013fc:	04b78663          	beq	a5,a1,80001448 <vprintfmt+0x384>
    80001400:	00178713          	addi	a4,a5,1
    80001404:	fff74683          	lbu	a3,-1(a4)
    80001408:	04068063          	beqz	a3,80001448 <vprintfmt+0x384>
    8000140c:	00070793          	mv	a5,a4
    80001410:	fedff06f          	j	800013fc <vprintfmt+0x338>
    80001414:	00174683          	lbu	a3,1(a4)
    80001418:	0018081b          	addiw	a6,a6,1
    8000141c:	00090713          	mv	a4,s2
    80001420:	d4dff06f          	j	8000116c <vprintfmt+0xa8>
    80001424:	00a00d93          	li	s11,10
    80001428:	dc1ff06f          	j	800011e8 <vprintfmt+0x124>
    8000142c:	01000d93          	li	s11,16
    80001430:	db9ff06f          	j	800011e8 <vprintfmt+0x124>
    80001434:	00098593          	mv	a1,s3
    80001438:	02500513          	li	a0,37
    8000143c:	000a00e7          	jalr	s4
    80001440:	00048913          	mv	s2,s1
    80001444:	cd9ff06f          	j	8000111c <vprintfmt+0x58>
    80001448:	409787bb          	subw	a5,a5,s1
    8000144c:	40fc8cbb          	subw	s9,s9,a5
    80001450:	01905c63          	blez	s9,80001468 <vprintfmt+0x3a4>
    80001454:	fffc8c9b          	addiw	s9,s9,-1
    80001458:	00098593          	mv	a1,s3
    8000145c:	000d0513          	mv	a0,s10
    80001460:	000a00e7          	jalr	s4
    80001464:	fe0c98e3          	bnez	s9,80001454 <vprintfmt+0x390>
    80001468:	0004c503          	lbu	a0,0(s1)
    8000146c:	04050463          	beqz	a0,800014b4 <vprintfmt+0x3f0>
    80001470:	00044863          	bltz	s0,80001480 <vprintfmt+0x3bc>
    80001474:	fff4041b          	addiw	s0,s0,-1
    80001478:	fff00793          	li	a5,-1
    8000147c:	00f40e63          	beq	s0,a5,80001498 <vprintfmt+0x3d4>
    80001480:	00098593          	mv	a1,s3
    80001484:	00148493          	addi	s1,s1,1
    80001488:	000a00e7          	jalr	s4
    8000148c:	0004c503          	lbu	a0,0(s1)
    80001490:	fffc8c9b          	addiw	s9,s9,-1
    80001494:	fc051ee3          	bnez	a0,80001470 <vprintfmt+0x3ac>
    80001498:	01905e63          	blez	s9,800014b4 <vprintfmt+0x3f0>
    8000149c:	02000413          	li	s0,32
    800014a0:	fffc8c9b          	addiw	s9,s9,-1
    800014a4:	00098593          	mv	a1,s3
    800014a8:	00040513          	mv	a0,s0
    800014ac:	000a00e7          	jalr	s4
    800014b0:	fe0c98e3          	bnez	s9,800014a0 <vprintfmt+0x3dc>
    800014b4:	01813423          	sd	s8,8(sp)
    800014b8:	c65ff06f          	j	8000111c <vprintfmt+0x58>
    800014bc:	00813783          	ld	a5,8(sp)
    800014c0:	00080a63          	beqz	a6,800014d4 <vprintfmt+0x410>
    800014c4:	0007b483          	ld	s1,0(a5)
    800014c8:	00878793          	addi	a5,a5,8
    800014cc:	00f13423          	sd	a5,8(sp)
    800014d0:	eb1ff06f          	j	80001380 <vprintfmt+0x2bc>
    800014d4:	0007a483          	lw	s1,0(a5)
    800014d8:	00878793          	addi	a5,a5,8
    800014dc:	00f13423          	sd	a5,8(sp)
    800014e0:	ea1ff06f          	j	80001380 <vprintfmt+0x2bc>
    800014e4:	0004c503          	lbu	a0,0(s1)
    800014e8:	f80514e3          	bnez	a0,80001470 <vprintfmt+0x3ac>
    800014ec:	fb1ff06f          	j	8000149c <vprintfmt+0x3d8>
    800014f0:	05905063          	blez	s9,80001530 <vprintfmt+0x46c>
    800014f4:	02d00793          	li	a5,45
    800014f8:	00001497          	auipc	s1,0x1
    800014fc:	91048493          	addi	s1,s1,-1776 # 80001e08 <main+0x2ac>
    80001500:	02800513          	li	a0,40
    80001504:	eefd12e3          	bne	s10,a5,800013e8 <vprintfmt+0x324>
    80001508:	f69ff06f          	j	80001470 <vprintfmt+0x3ac>
    8000150c:	00078693          	mv	a3,a5
    80001510:	00090713          	mv	a4,s2
    80001514:	dc5ff06f          	j	800012d8 <vprintfmt+0x214>
    80001518:	00040693          	mv	a3,s0
    8000151c:	fffc849b          	addiw	s1,s9,-1
    80001520:	00000413          	li	s0,0
    80001524:	00068c13          	mv	s8,a3
    80001528:	d196cce3          	blt	a3,s9,80001240 <vprintfmt+0x17c>
    8000152c:	d41ff06f          	j	8000126c <vprintfmt+0x1a8>
    80001530:	02800513          	li	a0,40
    80001534:	00001497          	auipc	s1,0x1
    80001538:	8d448493          	addi	s1,s1,-1836 # 80001e08 <main+0x2ac>
    8000153c:	f35ff06f          	j	80001470 <vprintfmt+0x3ac>
    80001540:	00000793          	li	a5,0
    80001544:	f09ff06f          	j	8000144c <vprintfmt+0x388>

0000000080001548 <sprintf_putch.2790>:
    80001548:	0005b783          	ld	a5,0(a1)
    8000154c:	00a78023          	sb	a0,0(a5)
    80001550:	0005b783          	ld	a5,0(a1)
    80001554:	00178793          	addi	a5,a5,1
    80001558:	00f5b023          	sd	a5,0(a1)
    8000155c:	00008067          	ret

0000000080001560 <tohost_exit>:
    80001560:	00151793          	slli	a5,a0,0x1
    80001564:	0017e793          	ori	a5,a5,1
    80001568:	00000717          	auipc	a4,0x0
    8000156c:	a8f73c23          	sd	a5,-1384(a4) # 80001000 <tohost>
    80001570:	0000006f          	j	80001570 <tohost_exit+0x10>

0000000080001574 <handle_trap>:
    80001574:	ff010113          	addi	sp,sp,-16
    80001578:	00813023          	sd	s0,0(sp)
    8000157c:	00113423          	sd	ra,8(sp)
    80001580:	00b00713          	li	a4,11
    80001584:	01010413          	addi	s0,sp,16
    80001588:	f8010113          	addi	sp,sp,-128
    8000158c:	00e50c63          	beq	a0,a4,800015a4 <handle_trap+0x30>
    80001590:	000017b7          	lui	a5,0x1
    80001594:	a7378793          	addi	a5,a5,-1421 # a73 <_tbss_end+0xa2f>
    80001598:	00000717          	auipc	a4,0x0
    8000159c:	a6f73423          	sd	a5,-1432(a4) # 80001000 <tohost>
    800015a0:	0000006f          	j	800015a0 <handle_trap+0x2c>
    800015a4:	08863703          	ld	a4,136(a2)
    800015a8:	05d00693          	li	a3,93
    800015ac:	0ed70863          	beq	a4,a3,8000169c <handle_trap+0x128>
    800015b0:	4d200693          	li	a3,1234
    800015b4:	08d71a63          	bne	a4,a3,80001648 <handle_trap+0xd4>
    800015b8:	05062703          	lw	a4,80(a2)
    800015bc:	b00027f3          	csrr	a5,mcycle
    800015c0:	02071063          	bnez	a4,800015e0 <handle_trap+0x6c>
    800015c4:	00001697          	auipc	a3,0x1
    800015c8:	d3c6b683          	ld	a3,-708(a3) # 80002300 <counters>
    800015cc:	40d787b3          	sub	a5,a5,a3
    800015d0:	00001697          	auipc	a3,0x1
    800015d4:	84068693          	addi	a3,a3,-1984 # 80001e10 <main+0x2b4>
    800015d8:	00001517          	auipc	a0,0x1
    800015dc:	d2d53c23          	sd	a3,-712(a0) # 80002310 <counter_names>
    800015e0:	00001697          	auipc	a3,0x1
    800015e4:	d2f6b023          	sd	a5,-736(a3) # 80002300 <counters>
    800015e8:	b02027f3          	csrr	a5,minstret
    800015ec:	02071063          	bnez	a4,8000160c <handle_trap+0x98>
    800015f0:	00001717          	auipc	a4,0x1
    800015f4:	d1873703          	ld	a4,-744(a4) # 80002308 <counters+0x8>
    800015f8:	40e787b3          	sub	a5,a5,a4
    800015fc:	00001717          	auipc	a4,0x1
    80001600:	81c70713          	addi	a4,a4,-2020 # 80001e18 <main+0x2bc>
    80001604:	00001697          	auipc	a3,0x1
    80001608:	d0e6ba23          	sd	a4,-748(a3) # 80002318 <counter_names+0x8>
    8000160c:	00001717          	auipc	a4,0x1
    80001610:	cef73e23          	sd	a5,-772(a4) # 80002308 <counters+0x8>
    80001614:	04063823          	sd	zero,80(a2)
    80001618:	0005d783          	lhu	a5,0(a1)
    8000161c:	00300713          	li	a4,3
    80001620:	00400513          	li	a0,4
    80001624:	00e7f7b3          	and	a5,a5,a4
    80001628:	00e78463          	beq	a5,a4,80001630 <handle_trap+0xbc>
    8000162c:	00200513          	li	a0,2
    80001630:	ff040113          	addi	sp,s0,-16
    80001634:	00813083          	ld	ra,8(sp)
    80001638:	00b50533          	add	a0,a0,a1
    8000163c:	00013403          	ld	s0,0(sp)
    80001640:	01010113          	addi	sp,sp,16
    80001644:	00008067          	ret
    80001648:	05063503          	ld	a0,80(a2)
    8000164c:	03f10793          	addi	a5,sp,63
    80001650:	fc07f793          	andi	a5,a5,-64
    80001654:	05863683          	ld	a3,88(a2)
    80001658:	00e7b023          	sd	a4,0(a5)
    8000165c:	06063703          	ld	a4,96(a2)
    80001660:	00a7b423          	sd	a0,8(a5)
    80001664:	00d7b823          	sd	a3,16(a5)
    80001668:	00e7bc23          	sd	a4,24(a5)
    8000166c:	0330000f          	fence	rw,rw
    80001670:	00000717          	auipc	a4,0x0
    80001674:	98f73823          	sd	a5,-1648(a4) # 80001000 <tohost>
    80001678:	00000717          	auipc	a4,0x0
    8000167c:	9c873703          	ld	a4,-1592(a4) # 80001040 <fromhost>
    80001680:	fe070ce3          	beqz	a4,80001678 <handle_trap+0x104>
    80001684:	00000717          	auipc	a4,0x0
    80001688:	9a073e23          	sd	zero,-1604(a4) # 80001040 <fromhost>
    8000168c:	0330000f          	fence	rw,rw
    80001690:	0007b783          	ld	a5,0(a5)
    80001694:	04f63823          	sd	a5,80(a2)
    80001698:	f81ff06f          	j	80001618 <handle_trap+0xa4>
    8000169c:	05063503          	ld	a0,80(a2)
    800016a0:	ec1ff0ef          	jal	80001560 <tohost_exit>

00000000800016a4 <exit>:
    800016a4:	05d00893          	li	a7,93
    800016a8:	00000593          	li	a1,0
    800016ac:	00000613          	li	a2,0
    800016b0:	00000073          	ecall
    800016b4:	0000006f          	j	800016b4 <exit+0x10>

00000000800016b8 <setStats>:
    800016b8:	4d200893          	li	a7,1234
    800016bc:	00000593          	li	a1,0
    800016c0:	00000613          	li	a2,0
    800016c4:	00000073          	ecall
    800016c8:	00008067          	ret

00000000800016cc <printstr>:
    800016cc:	00054783          	lbu	a5,0(a0)
    800016d0:	00050593          	mv	a1,a0
    800016d4:	02078463          	beqz	a5,800016fc <printstr+0x30>
    800016d8:	00050613          	mv	a2,a0
    800016dc:	00160613          	addi	a2,a2,1
    800016e0:	00064783          	lbu	a5,0(a2)
    800016e4:	fe079ce3          	bnez	a5,800016dc <printstr+0x10>
    800016e8:	40b60633          	sub	a2,a2,a1
    800016ec:	04000893          	li	a7,64
    800016f0:	00100513          	li	a0,1
    800016f4:	00000073          	ecall
    800016f8:	00008067          	ret
    800016fc:	00000613          	li	a2,0
    80001700:	fedff06f          	j	800016ec <printstr+0x20>

0000000080001704 <thread_entry>:
    80001704:	00050463          	beqz	a0,8000170c <thread_entry+0x8>
    80001708:	0000006f          	j	80001708 <thread_entry+0x4>
    8000170c:	00008067          	ret

0000000080001710 <printhex>:
    80001710:	fe010113          	addi	sp,sp,-32
    80001714:	01710713          	addi	a4,sp,23
    80001718:	00710893          	addi	a7,sp,7
    8000171c:	00900813          	li	a6,9
    80001720:	05700593          	li	a1,87
    80001724:	03000313          	li	t1,48
    80001728:	00f57693          	andi	a3,a0,15
    8000172c:	00068613          	mv	a2,a3
    80001730:	00058793          	mv	a5,a1
    80001734:	00d86463          	bltu	a6,a3,8000173c <printhex+0x2c>
    80001738:	00030793          	mv	a5,t1
    8000173c:	00c787bb          	addw	a5,a5,a2
    80001740:	00f70023          	sb	a5,0(a4)
    80001744:	fff70713          	addi	a4,a4,-1
    80001748:	00455513          	srli	a0,a0,0x4
    8000174c:	fce89ee3          	bne	a7,a4,80001728 <printhex+0x18>
    80001750:	00814783          	lbu	a5,8(sp)
    80001754:	00010c23          	sb	zero,24(sp)
    80001758:	00810593          	addi	a1,sp,8
    8000175c:	02078663          	beqz	a5,80001788 <printhex+0x78>
    80001760:	00058613          	mv	a2,a1
    80001764:	00160613          	addi	a2,a2,1
    80001768:	00064783          	lbu	a5,0(a2)
    8000176c:	fe079ce3          	bnez	a5,80001764 <printhex+0x54>
    80001770:	40b60633          	sub	a2,a2,a1
    80001774:	04000893          	li	a7,64
    80001778:	00100513          	li	a0,1
    8000177c:	00000073          	ecall
    80001780:	02010113          	addi	sp,sp,32
    80001784:	00008067          	ret
    80001788:	00000613          	li	a2,0
    8000178c:	fe9ff06f          	j	80001774 <printhex+0x64>

0000000080001790 <printf>:
    80001790:	fa010113          	addi	sp,sp,-96
    80001794:	02810313          	addi	t1,sp,40
    80001798:	02b13423          	sd	a1,40(sp)
    8000179c:	02c13823          	sd	a2,48(sp)
    800017a0:	02d13c23          	sd	a3,56(sp)
    800017a4:	00050613          	mv	a2,a0
    800017a8:	00030693          	mv	a3,t1
    800017ac:	00000517          	auipc	a0,0x0
    800017b0:	8c850513          	addi	a0,a0,-1848 # 80001074 <putchar>
    800017b4:	00000593          	li	a1,0
    800017b8:	00113c23          	sd	ra,24(sp)
    800017bc:	04e13023          	sd	a4,64(sp)
    800017c0:	04f13423          	sd	a5,72(sp)
    800017c4:	05013823          	sd	a6,80(sp)
    800017c8:	05113c23          	sd	a7,88(sp)
    800017cc:	00613423          	sd	t1,8(sp)
    800017d0:	8f5ff0ef          	jal	800010c4 <vprintfmt>
    800017d4:	01813083          	ld	ra,24(sp)
    800017d8:	00000513          	li	a0,0
    800017dc:	06010113          	addi	sp,sp,96
    800017e0:	00008067          	ret

00000000800017e4 <sprintf>:
    800017e4:	fa010113          	addi	sp,sp,-96
    800017e8:	03010313          	addi	t1,sp,48
    800017ec:	02813023          	sd	s0,32(sp)
    800017f0:	00a13423          	sd	a0,8(sp)
    800017f4:	02c13823          	sd	a2,48(sp)
    800017f8:	02d13c23          	sd	a3,56(sp)
    800017fc:	00050413          	mv	s0,a0
    80001800:	00058613          	mv	a2,a1
    80001804:	00000517          	auipc	a0,0x0
    80001808:	d4450513          	addi	a0,a0,-700 # 80001548 <sprintf_putch.2790>
    8000180c:	00810593          	addi	a1,sp,8
    80001810:	00030693          	mv	a3,t1
    80001814:	02113423          	sd	ra,40(sp)
    80001818:	04f13423          	sd	a5,72(sp)
    8000181c:	04e13023          	sd	a4,64(sp)
    80001820:	05013823          	sd	a6,80(sp)
    80001824:	05113c23          	sd	a7,88(sp)
    80001828:	00613c23          	sd	t1,24(sp)
    8000182c:	899ff0ef          	jal	800010c4 <vprintfmt>
    80001830:	00813783          	ld	a5,8(sp)
    80001834:	00078023          	sb	zero,0(a5)
    80001838:	00813503          	ld	a0,8(sp)
    8000183c:	02813083          	ld	ra,40(sp)
    80001840:	4085053b          	subw	a0,a0,s0
    80001844:	02013403          	ld	s0,32(sp)
    80001848:	06010113          	addi	sp,sp,96
    8000184c:	00008067          	ret

0000000080001850 <memcpy>:
    80001850:	00c5e7b3          	or	a5,a1,a2
    80001854:	00f567b3          	or	a5,a0,a5
    80001858:	0077f793          	andi	a5,a5,7
    8000185c:	00c50633          	add	a2,a0,a2
    80001860:	02078263          	beqz	a5,80001884 <memcpy+0x34>
    80001864:	00050793          	mv	a5,a0
    80001868:	02c57e63          	bleu	a2,a0,800018a4 <memcpy+0x54>
    8000186c:	00158593          	addi	a1,a1,1
    80001870:	fff5c703          	lbu	a4,-1(a1)
    80001874:	00178793          	addi	a5,a5,1
    80001878:	fee78fa3          	sb	a4,-1(a5)
    8000187c:	fec798e3          	bne	a5,a2,8000186c <memcpy+0x1c>
    80001880:	00008067          	ret
    80001884:	fec57ee3          	bleu	a2,a0,80001880 <memcpy+0x30>
    80001888:	00050793          	mv	a5,a0
    8000188c:	00858593          	addi	a1,a1,8
    80001890:	ff85b703          	ld	a4,-8(a1)
    80001894:	00878793          	addi	a5,a5,8
    80001898:	fee7bc23          	sd	a4,-8(a5)
    8000189c:	fec7e8e3          	bltu	a5,a2,8000188c <memcpy+0x3c>
    800018a0:	00008067          	ret
    800018a4:	00008067          	ret

00000000800018a8 <memset>:
    800018a8:	00c567b3          	or	a5,a0,a2
    800018ac:	0077f793          	andi	a5,a5,7
    800018b0:	02078263          	beqz	a5,800018d4 <memset+0x2c>
    800018b4:	00c50633          	add	a2,a0,a2
    800018b8:	0ff5f593          	andi	a1,a1,255
    800018bc:	00050793          	mv	a5,a0
    800018c0:	04c57663          	bleu	a2,a0,8000190c <memset+0x64>
    800018c4:	00178793          	addi	a5,a5,1
    800018c8:	feb78fa3          	sb	a1,-1(a5)
    800018cc:	fec79ce3          	bne	a5,a2,800018c4 <memset+0x1c>
    800018d0:	00008067          	ret
    800018d4:	0ff5f713          	andi	a4,a1,255
    800018d8:	00871593          	slli	a1,a4,0x8
    800018dc:	00b76733          	or	a4,a4,a1
    800018e0:	01071793          	slli	a5,a4,0x10
    800018e4:	00f76733          	or	a4,a4,a5
    800018e8:	02071793          	slli	a5,a4,0x20
    800018ec:	00c50633          	add	a2,a0,a2
    800018f0:	00f76733          	or	a4,a4,a5
    800018f4:	fcc57ee3          	bleu	a2,a0,800018d0 <memset+0x28>
    800018f8:	00050793          	mv	a5,a0
    800018fc:	00878793          	addi	a5,a5,8
    80001900:	fee7bc23          	sd	a4,-8(a5)
    80001904:	fec7ece3          	bltu	a5,a2,800018fc <memset+0x54>
    80001908:	00008067          	ret
    8000190c:	00008067          	ret

0000000080001910 <_init>:
    80001910:	fb010113          	addi	sp,sp,-80
    80001914:	02913c23          	sd	s1,56(sp)
    80001918:	03313423          	sd	s3,40(sp)
    8000191c:	00020993          	mv	s3,tp
    80001920:	00020493          	mv	s1,tp
    80001924:	409984b3          	sub	s1,s3,s1
    80001928:	04113423          	sd	ra,72(sp)
    8000192c:	04813023          	sd	s0,64(sp)
    80001930:	03213823          	sd	s2,48(sp)
    80001934:	05010413          	addi	s0,sp,80
    80001938:	03413023          	sd	s4,32(sp)
    8000193c:	01513c23          	sd	s5,24(sp)
    80001940:	01613823          	sd	s6,16(sp)
    80001944:	01713423          	sd	s7,8(sp)
    80001948:	00050a13          	mv	s4,a0
    8000194c:	f8010113          	addi	sp,sp,-128
    80001950:	00020513          	mv	a0,tp
    80001954:	00058a93          	mv	s5,a1
    80001958:	00048613          	mv	a2,s1
    8000195c:	00001597          	auipc	a1,0x1
    80001960:	9e458593          	addi	a1,a1,-1564 # 80002340 <_end>
    80001964:	00020b13          	mv	s6,tp
    80001968:	ee9ff0ef          	jal	80001850 <memcpy>
    8000196c:	04420613          	addi	a2,tp,68 # 44 <_tbss_end>
    80001970:	41360633          	sub	a2,a2,s3
    80001974:	009b0533          	add	a0,s6,s1
    80001978:	00000593          	li	a1,0
    8000197c:	f2dff0ef          	jal	800018a8 <memset>
    80001980:	000a8593          	mv	a1,s5
    80001984:	000a0513          	mv	a0,s4
    80001988:	d7dff0ef          	jal	80001704 <thread_entry>
    8000198c:	03f10913          	addi	s2,sp,63
    80001990:	00000593          	li	a1,0
    80001994:	00000513          	li	a0,0
    80001998:	fc097913          	andi	s2,s2,-64
    8000199c:	00001997          	auipc	s3,0x1
    800019a0:	97498993          	addi	s3,s3,-1676 # 80002310 <counter_names>
    800019a4:	1b8000ef          	jal	80001b5c <main>
    800019a8:	00050b13          	mv	s6,a0
    800019ac:	00001497          	auipc	s1,0x1
    800019b0:	95448493          	addi	s1,s1,-1708 # 80002300 <counters>
    800019b4:	00098a93          	mv	s5,s3
    800019b8:	00090a13          	mv	s4,s2
    800019bc:	00000b97          	auipc	s7,0x0
    800019c0:	484b8b93          	addi	s7,s7,1156 # 80001e40 <main+0x2e4>
    800019c4:	0004b683          	ld	a3,0(s1)
    800019c8:	04069463          	bnez	a3,80001a10 <_init+0x100>
    800019cc:	00848493          	addi	s1,s1,8
    800019d0:	00898993          	addi	s3,s3,8
    800019d4:	ff5498e3          	bne	s1,s5,800019c4 <_init+0xb4>
    800019d8:	03490863          	beq	s2,s4,80001a08 <_init+0xf8>
    800019dc:	00094783          	lbu	a5,0(s2)
    800019e0:	00090613          	mv	a2,s2
    800019e4:	00078863          	beqz	a5,800019f4 <_init+0xe4>
    800019e8:	00160613          	addi	a2,a2,1
    800019ec:	00064783          	lbu	a5,0(a2)
    800019f0:	fe079ce3          	bnez	a5,800019e8 <_init+0xd8>
    800019f4:	04000893          	li	a7,64
    800019f8:	00100513          	li	a0,1
    800019fc:	00090593          	mv	a1,s2
    80001a00:	41260633          	sub	a2,a2,s2
    80001a04:	00000073          	ecall
    80001a08:	000b0513          	mv	a0,s6
    80001a0c:	c99ff0ef          	jal	800016a4 <exit>
    80001a10:	0009b603          	ld	a2,0(s3)
    80001a14:	000a0513          	mv	a0,s4
    80001a18:	000b8593          	mv	a1,s7
    80001a1c:	dc9ff0ef          	jal	800017e4 <sprintf>
    80001a20:	00aa0a33          	add	s4,s4,a0
    80001a24:	fa9ff06f          	j	800019cc <_init+0xbc>

0000000080001a28 <strlen>:
    80001a28:	00054783          	lbu	a5,0(a0)
    80001a2c:	00078e63          	beqz	a5,80001a48 <strlen+0x20>
    80001a30:	00050793          	mv	a5,a0
    80001a34:	00178793          	addi	a5,a5,1
    80001a38:	0007c703          	lbu	a4,0(a5)
    80001a3c:	fe071ce3          	bnez	a4,80001a34 <strlen+0xc>
    80001a40:	40a78533          	sub	a0,a5,a0
    80001a44:	00008067          	ret
    80001a48:	00000513          	li	a0,0
    80001a4c:	00008067          	ret

0000000080001a50 <strnlen>:
    80001a50:	02058863          	beqz	a1,80001a80 <strnlen+0x30>
    80001a54:	00054783          	lbu	a5,0(a0)
    80001a58:	02078463          	beqz	a5,80001a80 <strnlen+0x30>
    80001a5c:	00b505b3          	add	a1,a0,a1
    80001a60:	00050793          	mv	a5,a0
    80001a64:	00c0006f          	j	80001a70 <strnlen+0x20>
    80001a68:	0007c703          	lbu	a4,0(a5)
    80001a6c:	00070663          	beqz	a4,80001a78 <strnlen+0x28>
    80001a70:	00178793          	addi	a5,a5,1
    80001a74:	feb79ae3          	bne	a5,a1,80001a68 <strnlen+0x18>
    80001a78:	40a78533          	sub	a0,a5,a0
    80001a7c:	00008067          	ret
    80001a80:	00000513          	li	a0,0
    80001a84:	00008067          	ret

0000000080001a88 <strcmp>:
    80001a88:	00150513          	addi	a0,a0,1
    80001a8c:	fff54783          	lbu	a5,-1(a0)
    80001a90:	00158593          	addi	a1,a1,1
    80001a94:	fff5c703          	lbu	a4,-1(a1)
    80001a98:	00078863          	beqz	a5,80001aa8 <strcmp+0x20>
    80001a9c:	fee786e3          	beq	a5,a4,80001a88 <strcmp>
    80001aa0:	40e7853b          	subw	a0,a5,a4
    80001aa4:	00008067          	ret
    80001aa8:	00000793          	li	a5,0
    80001aac:	ff5ff06f          	j	80001aa0 <strcmp+0x18>

0000000080001ab0 <strcpy>:
    80001ab0:	00050793          	mv	a5,a0
    80001ab4:	00158593          	addi	a1,a1,1
    80001ab8:	fff5c703          	lbu	a4,-1(a1)
    80001abc:	00178793          	addi	a5,a5,1
    80001ac0:	fee78fa3          	sb	a4,-1(a5)
    80001ac4:	fe0718e3          	bnez	a4,80001ab4 <strcpy+0x4>
    80001ac8:	00008067          	ret

0000000080001acc <atol>:
    80001acc:	00054703          	lbu	a4,0(a0)
    80001ad0:	02000693          	li	a3,32
    80001ad4:	00050793          	mv	a5,a0
    80001ad8:	00d71a63          	bne	a4,a3,80001aec <atol+0x20>
    80001adc:	00070693          	mv	a3,a4
    80001ae0:	00178793          	addi	a5,a5,1
    80001ae4:	0007c703          	lbu	a4,0(a5)
    80001ae8:	fed70ce3          	beq	a4,a3,80001ae0 <atol+0x14>
    80001aec:	fd57069b          	addiw	a3,a4,-43
    80001af0:	0fd6f693          	andi	a3,a3,253
    80001af4:	04068263          	beqz	a3,80001b38 <atol+0x6c>
    80001af8:	0007c683          	lbu	a3,0(a5)
    80001afc:	00000613          	li	a2,0
    80001b00:	04068a63          	beqz	a3,80001b54 <atol+0x88>
    80001b04:	00000713          	li	a4,0
    80001b08:	00178793          	addi	a5,a5,1
    80001b0c:	00271513          	slli	a0,a4,0x2
    80001b10:	fd06859b          	addiw	a1,a3,-48
    80001b14:	0007c683          	lbu	a3,0(a5)
    80001b18:	00e50533          	add	a0,a0,a4
    80001b1c:	00151513          	slli	a0,a0,0x1
    80001b20:	00a58733          	add	a4,a1,a0
    80001b24:	fe0692e3          	bnez	a3,80001b08 <atol+0x3c>
    80001b28:	00060463          	beqz	a2,80001b30 <atol+0x64>
    80001b2c:	40e00733          	neg	a4,a4
    80001b30:	00070513          	mv	a0,a4
    80001b34:	00008067          	ret
    80001b38:	0017c683          	lbu	a3,1(a5)
    80001b3c:	fd37071b          	addiw	a4,a4,-45
    80001b40:	00173613          	seqz	a2,a4
    80001b44:	00178793          	addi	a5,a5,1
    80001b48:	fa069ee3          	bnez	a3,80001b04 <atol+0x38>
    80001b4c:	00000713          	li	a4,0
    80001b50:	fd9ff06f          	j	80001b28 <atol+0x5c>
    80001b54:	00000713          	li	a4,0
    80001b58:	fd9ff06f          	j	80001b30 <atol+0x64>

Disassembly of section .text.startup:

0000000080001b5c <main>:
    80001b5c:	e3010113          	addi	sp,sp,-464
    80001b60:	1a913c23          	sd	s1,440(sp)
    80001b64:	1b213823          	sd	s2,432(sp)
    80001b68:	00000497          	auipc	s1,0x0
    80001b6c:	2e848493          	addi	s1,s1,744 # 80001e50 <input_data1>
    80001b70:	00000917          	auipc	s2,0x0
    80001b74:	47090913          	addi	s2,s2,1136 # 80001fe0 <input_data2>
    80001b78:	1c813023          	sd	s0,448(sp)
    80001b7c:	1b313423          	sd	s3,424(sp)
    80001b80:	1b413023          	sd	s4,416(sp)
    80001b84:	19513c23          	sd	s5,408(sp)
    80001b88:	19613823          	sd	s6,400(sp)
    80001b8c:	1c113423          	sd	ra,456(sp)
    80001b90:	00010b13          	mv	s6,sp
    80001b94:	00090a93          	mv	s5,s2
    80001b98:	00010a13          	mv	s4,sp
    80001b9c:	00090993          	mv	s3,s2
    80001ba0:	00048413          	mv	s0,s1
    80001ba4:	0009a583          	lw	a1,0(s3)
    80001ba8:	00042503          	lw	a0,0(s0)
    80001bac:	00440413          	addi	s0,s0,4
    80001bb0:	00498993          	addi	s3,s3,4
    80001bb4:	fffff317          	auipc	t1,0xfffff
    80001bb8:	494300e7          	jalr	t1,1172 # 80001048 <multiply>
    80001bbc:	00aa2023          	sw	a0,0(s4)
    80001bc0:	004a0a13          	addi	s4,s4,4
    80001bc4:	ff5410e3          	bne	s0,s5,80001ba4 <main+0x48>
    80001bc8:	00100513          	li	a0,1
    80001bcc:	00000317          	auipc	t1,0x0
    80001bd0:	aec300e7          	jalr	t1,-1300 # 800016b8 <setStats>
    80001bd4:	000b0993          	mv	s3,s6
    80001bd8:	00092583          	lw	a1,0(s2)
    80001bdc:	0004a503          	lw	a0,0(s1)
    80001be0:	00448493          	addi	s1,s1,4
    80001be4:	00490913          	addi	s2,s2,4
    80001be8:	fffff317          	auipc	t1,0xfffff
    80001bec:	460300e7          	jalr	t1,1120 # 80001048 <multiply>
    80001bf0:	00a9a023          	sw	a0,0(s3)
    80001bf4:	00498993          	addi	s3,s3,4
    80001bf8:	fe8490e3          	bne	s1,s0,80001bd8 <main+0x7c>
    80001bfc:	00000513          	li	a0,0
    80001c00:	00000317          	auipc	t1,0x0
    80001c04:	ab8300e7          	jalr	t1,-1352 # 800016b8 <setStats>
    80001c08:	00000797          	auipc	a5,0x0
    80001c0c:	56878793          	addi	a5,a5,1384 # 80002170 <verify_data>
    80001c10:	00000513          	li	a0,0
    80001c14:	06400813          	li	a6,100
    80001c18:	000b2683          	lw	a3,0(s6)
    80001c1c:	0007a703          	lw	a4,0(a5)
    80001c20:	004b2583          	lw	a1,4(s6)
    80001c24:	0047a603          	lw	a2,4(a5)
    80001c28:	04e69263          	bne	a3,a4,80001c6c <main+0x110>
    80001c2c:	008b0b13          	addi	s6,s6,8
    80001c30:	0025051b          	addiw	a0,a0,2
    80001c34:	00c59863          	bne	a1,a2,80001c44 <main+0xe8>
    80001c38:	00878793          	addi	a5,a5,8
    80001c3c:	fd051ee3          	bne	a0,a6,80001c18 <main+0xbc>
    80001c40:	00000513          	li	a0,0
    80001c44:	1c813083          	ld	ra,456(sp)
    80001c48:	1c013403          	ld	s0,448(sp)
    80001c4c:	1b813483          	ld	s1,440(sp)
    80001c50:	1b013903          	ld	s2,432(sp)
    80001c54:	1a813983          	ld	s3,424(sp)
    80001c58:	1a013a03          	ld	s4,416(sp)
    80001c5c:	19813a83          	ld	s5,408(sp)
    80001c60:	19013b03          	ld	s6,400(sp)
    80001c64:	1d010113          	addi	sp,sp,464
    80001c68:	00008067          	ret
    80001c6c:	0015051b          	addiw	a0,a0,1
    80001c70:	fd5ff06f          	j	80001c44 <main+0xe8>
    80001c74:	00000617          	auipc	a2,0x0
    80001c78:	1b460613          	addi	a2,a2,436 # 80001e28 <main+0x2cc>
    80001c7c:	00060793          	mv	a5,a2
    80001c80:	00178793          	addi	a5,a5,1
    80001c84:	0007c703          	lbu	a4,0(a5)
    80001c88:	fe071ce3          	bnez	a4,80001c80 <main+0x124>
    80001c8c:	04000893          	li	a7,64
    80001c90:	00100513          	li	a0,1
    80001c94:	00000597          	auipc	a1,0x0
    80001c98:	19458593          	addi	a1,a1,404 # 80001e28 <main+0x2cc>
    80001c9c:	40c78633          	sub	a2,a5,a2
    80001ca0:	00000073          	ecall
    80001ca4:	fff00513          	li	a0,-1
    80001ca8:	00008067          	ret

Disassembly of section .data:

0000000080001e50 <input_data1>:
    80001e50:	0029                	0x29
    80001e52:	0000                	unimp
    80001e54:	01c6                	slli	gp,gp,0x11
    80001e56:	0000                	unimp
    80001e58:	0341                	addi	t1,t1,16
    80001e5a:	0000                	unimp
    80001e5c:	0000014f          	fnmadd.s	ft2,ft0,ft0,ft0,rne
    80001e60:	0234                	addi	a3,sp,264
    80001e62:	0000                	unimp
    80001e64:	0001                	nop
    80001e66:	0000                	unimp
    80001e68:	000000bb          	addw	ra,zero,zero
    80001e6c:	03dd                	addi	t2,t2,23
    80001e6e:	0000                	unimp
    80001e70:	02ed                	addi	t0,t0,27
    80001e72:	0000                	unimp
    80001e74:	016d                	addi	sp,sp,27
    80001e76:	0000                	unimp
    80001e78:	015e                	slli	sp,sp,0x17
    80001e7a:	0000                	unimp
    80001e7c:	023c                	addi	a5,sp,264
    80001e7e:	0000                	unimp
    80001e80:	0084                	addi	s1,sp,64
    80001e82:	0000                	unimp
    80001e84:	0040                	addi	s0,sp,4
    80001e86:	0000                	unimp
    80001e88:	03b5                	addi	t2,t2,13
    80001e8a:	0000                	unimp
    80001e8c:	0099                	addi	ra,ra,6
    80001e8e:	0000                	unimp
    80001e90:	0248                	addi	a0,sp,260
    80001e92:	0000                	unimp
    80001e94:	00d8                	addi	a4,sp,68
    80001e96:	0000                	unimp
    80001e98:	0325                	addi	t1,t1,9
    80001e9a:	0000                	unimp
    80001e9c:	008c                	addi	a1,sp,64
    80001e9e:	0000                	unimp
    80001ea0:	026d                	addi	tp,tp,27
    80001ea2:	0000                	unimp
    80001ea4:	00d2                	slli	ra,ra,0x14
    80001ea6:	0000                	unimp
    80001ea8:	0006                	0x6
    80001eaa:	0000                	unimp
    80001eac:	023c                	addi	a5,sp,264
    80001eae:	0000                	unimp
    80001eb0:	000003a3          	sb	zero,7(zero) # 7 <_tdata_begin+0x7>
    80001eb4:	00000153          	fadd.s	ft2,ft0,ft0,rne
    80001eb8:	037a                	slli	t1,t1,0x1e
    80001eba:	0000                	unimp
    80001ebc:	0251                	addi	tp,tp,20
    80001ebe:	0000                	unimp
    80001ec0:	0188                	addi	a0,sp,192
    80001ec2:	0000                	unimp
    80001ec4:	0382                	slli	t2,t2,0x0
    80001ec6:	0000                	unimp
    80001ec8:	02b6                	slli	t0,t0,0xd
    80001eca:	0000                	unimp
    80001ecc:	00e4                	addi	s1,sp,76
    80001ece:	0000                	unimp
    80001ed0:	03c1                	addi	t2,t2,16
    80001ed2:	0000                	unimp
    80001ed4:	000c                	addi	a1,sp,0
    80001ed6:	0000                	unimp
    80001ed8:	006e                	0x6e
    80001eda:	0000                	unimp
    80001edc:	00000373          	0x373
    80001ee0:	0074                	addi	a3,sp,12
    80001ee2:	0000                	unimp
    80001ee4:	02ee                	slli	t0,t0,0x1b
    80001ee6:	0000                	unimp
    80001ee8:	0128                	addi	a0,sp,136
    80001eea:	0000                	unimp
    80001eec:	0286                	slli	t0,t0,0x1
    80001eee:	0000                	unimp
    80001ef0:	01aa                	slli	gp,gp,0xa
    80001ef2:	0000                	unimp
    80001ef4:	01f4                	addi	a3,sp,204
    80001ef6:	0000                	unimp
    80001ef8:	013a                	slli	sp,sp,0xe
    80001efa:	0000                	unimp
    80001efc:	01b4                	addi	a3,sp,200
    80001efe:	0000                	unimp
    80001f00:	00000293          	li	t0,0
    80001f04:	02bd                	addi	t0,t0,15
    80001f06:	0000                	unimp
    80001f08:	0306                	slli	t1,t1,0x1
    80001f0a:	0000                	unimp
    80001f0c:	032c                	addi	a1,sp,392
    80001f0e:	0000                	unimp
    80001f10:	0000013f 000003d5 	0x3d50000013f
    80001f18:	02a6                	slli	t0,t0,0x9
    80001f1a:	0000                	unimp
    80001f1c:	0096                	slli	ra,ra,0x5
    80001f1e:	0000                	unimp
    80001f20:	0000036b          	0x36b
    80001f24:	02b8                	addi	a4,sp,328
    80001f26:	0000                	unimp
    80001f28:	0178                	addi	a4,sp,140
    80001f2a:	0000                	unimp
    80001f2c:	0234                	addi	a3,sp,264
    80001f2e:	0000                	unimp
    80001f30:	01da                	slli	gp,gp,0x16
    80001f32:	0000                	unimp
    80001f34:	0110                	addi	a2,sp,128
    80001f36:	0000                	unimp
    80001f38:	03aa                	slli	t2,t2,0xa
    80001f3a:	0000                	unimp
    80001f3c:	0102                	slli	sp,sp,0x0
    80001f3e:	0000                	unimp
    80001f40:	0000021b          	sext.w	tp,zero
    80001f44:	00000287          	0x287
    80001f48:	0239                	addi	tp,tp,14
    80001f4a:	0000                	unimp
    80001f4c:	01fd                	addi	gp,gp,31
    80001f4e:	0000                	unimp
    80001f50:	000000cb          	fnmsub.s	ft1,ft0,ft0,ft0,rne
    80001f54:	0058                	addi	a4,sp,4
    80001f56:	0000                	unimp
    80001f58:	0118                	addi	a4,sp,128
    80001f5a:	0000                	unimp
    80001f5c:	000002bf 000002f7 	0x2f7000002bf
    80001f64:	029d                	addi	t0,t0,7
    80001f66:	0000                	unimp
    80001f68:	025e                	slli	tp,tp,0x17
    80001f6a:	0000                	unimp
    80001f6c:	00000177          	0x177
    80001f70:	01ff                	0x1ff
    80001f72:	0000                	unimp
    80001f74:	00000227          	0x227
    80001f78:	0291                	addi	t0,t0,4
    80001f7a:	0000                	unimp
    80001f7c:	03a8                	addi	a0,sp,456
    80001f7e:	0000                	unimp
    80001f80:	000000c3          	fmadd.s	ft1,ft0,ft0,ft0,rne
    80001f84:	0250                	addi	a2,sp,260
    80001f86:	0000                	unimp
    80001f88:	0051                	0x51
    80001f8a:	0000                	unimp
    80001f8c:	0239                	addi	tp,tp,14
    80001f8e:	0000                	unimp
    80001f90:	0000010b          	0x10b
    80001f94:	03b8                	addi	a4,sp,456
    80001f96:	0000                	unimp
    80001f98:	00e5                	addi	ra,ra,25
    80001f9a:	0000                	unimp
    80001f9c:	0320                	addi	s0,sp,392
    80001f9e:	0000                	unimp
    80001fa0:	0151                	addi	sp,sp,20
    80001fa2:	0000                	unimp
    80001fa4:	0248                	addi	a0,sp,260
    80001fa6:	0000                	unimp
    80001fa8:	03b0                	addi	a2,sp,456
    80001faa:	0000                	unimp
    80001fac:	00000283          	lb	t0,0(zero) # 0 <_tdata_begin>
    80001fb0:	0386                	slli	t2,t2,0x1
    80001fb2:	0000                	unimp
    80001fb4:	0170                	addi	a2,sp,140
    80001fb6:	0000                	unimp
    80001fb8:	00f1                	addi	ra,ra,28
    80001fba:	0000                	unimp
    80001fbc:	01e9                	addi	gp,gp,26
    80001fbe:	0000                	unimp
    80001fc0:	0391                	addi	t2,t2,4
    80001fc2:	0000                	unimp
    80001fc4:	0148                	addi	a0,sp,132
    80001fc6:	0000                	unimp
    80001fc8:	033a                	slli	t1,t1,0xe
    80001fca:	0000                	unimp
    80001fcc:	0139                	addi	sp,sp,14
    80001fce:	0000                	unimp
    80001fd0:	03a5                	addi	t2,t2,9
    80001fd2:	0000                	unimp
    80001fd4:	0250                	addi	a2,sp,260
    80001fd6:	0000                	unimp
    80001fd8:	03d9                	addi	t2,t2,22
    80001fda:	0000                	unimp
    80001fdc:	0184                	addi	s1,sp,192
    80001fde:	0000                	unimp

0000000080001fe0 <input_data2>:
    80001fe0:	000000c3          	fmadd.s	ft1,ft0,ft0,ft0,rne
    80001fe4:	021f 0000 03c0      	0x3c00000021f
    80001fea:	0000                	unimp
    80001fec:	0289                	addi	t0,t0,2
    80001fee:	0000                	unimp
    80001ff0:	0236                	slli	tp,tp,0xd
    80001ff2:	0000                	unimp
    80001ff4:	000003d3          	fadd.s	ft7,ft0,ft0,rne
    80001ff8:	015e                	slli	sp,sp,0x17
    80001ffa:	0000                	unimp
    80001ffc:	03e5                	addi	t2,t2,25
    80001ffe:	0000                	unimp
    80002000:	0289                	addi	t0,t0,2
    80002002:	0000                	unimp
    80002004:	032e                	slli	t1,t1,0xb
    80002006:	0000                	unimp
    80002008:	0291                	addi	t0,t0,4
    8000200a:	0000                	unimp
    8000200c:	0000004f          	fnmadd.s	ft0,ft0,ft0,ft0,rne
    80002010:	00b5                	addi	ra,ra,13
    80002012:	0000                	unimp
    80002014:	00d0                	addi	a2,sp,68
    80002016:	0000                	unimp
    80002018:	0000006f          	j	80002018 <input_data2+0x38>
    8000201c:	03e6                	slli	t2,t2,0x19
    8000201e:	0000                	unimp
    80002020:	0000035b          	0x35b
    80002024:	0275                	addi	tp,tp,29
    80002026:	0000                	unimp
    80002028:	0041                	0x41
    8000202a:	0000                	unimp
    8000202c:	0000034f          	fnmadd.s	ft6,ft0,ft0,ft0,rne
    80002030:	0120                	addi	s0,sp,136
    80002032:	0000                	unimp
    80002034:	02c0                	addi	s0,sp,324
    80002036:	0000                	unimp
    80002038:	015d                	addi	sp,sp,23
    8000203a:	0000                	unimp
    8000203c:	03e5                	addi	t2,t2,25
    8000203e:	0000                	unimp
    80002040:	008d                	addi	ra,ra,3
    80002042:	0000                	unimp
    80002044:	00fd                	addi	ra,ra,31
    80002046:	0000                	unimp
    80002048:	0389                	addi	t2,t2,2
    8000204a:	0000                	unimp
    8000204c:	000002cb          	fnmsub.s	ft5,ft0,ft0,ft0,rne
    80002050:	0376                	slli	t1,t1,0x1d
    80002052:	0000                	unimp
    80002054:	01ae                	slli	gp,gp,0xb
    80002056:	0000                	unimp
    80002058:	0108                	addi	a0,sp,128
    8000205a:	0000                	unimp
    8000205c:	019f 0000 0240      	0x2400000019f
    80002062:	0000                	unimp
    80002064:	021a                	slli	tp,tp,0x6
    80002066:	0000                	unimp
    80002068:	000003d3          	fadd.s	ft7,ft0,ft0,rne
    8000206c:	02bc                	addi	a5,sp,328
    8000206e:	0000                	unimp
    80002070:	02f9                	addi	t0,t0,30
    80002072:	0000                	unimp
    80002074:	0004                	addi	s1,sp,0
    80002076:	0000                	unimp
    80002078:	00f1                	addi	ra,ra,28
    8000207a:	0000                	unimp
    8000207c:	01ee                	slli	gp,gp,0x1b
    8000207e:	0000                	unimp
    80002080:	01de                	slli	gp,gp,0x17
    80002082:	0000                	unimp
    80002084:	0064                	addi	s1,sp,12
    80002086:	0000                	unimp
    80002088:	000001f3          	0x1f3
    8000208c:	0360                	addi	s0,sp,396
    8000208e:	0000                	unimp
    80002090:	00000193          	li	gp,0
    80002094:	02b5                	addi	t0,t0,13
    80002096:	0000                	unimp
    80002098:	00de                	slli	ra,ra,0x17
    8000209a:	0000                	unimp
    8000209c:	01a0                	addi	s0,sp,200
    8000209e:	0000                	unimp
    800020a0:	01bc                	addi	a5,sp,200
    800020a2:	0000                	unimp
    800020a4:	0128                	addi	a0,sp,136
    800020a6:	0000                	unimp
    800020a8:	02d1                	addi	t0,t0,20
    800020aa:	0000                	unimp
    800020ac:	011d                	addi	sp,sp,7
    800020ae:	0000                	unimp
    800020b0:	02a4                	addi	s1,sp,328
    800020b2:	0000                	unimp
    800020b4:	026c                	addi	a1,sp,268
    800020b6:	0000                	unimp
    800020b8:	013d                	addi	sp,sp,15
    800020ba:	0000                	unimp
    800020bc:	004e                	0x4e
    800020be:	0000                	unimp
    800020c0:	00e0                	addi	s0,sp,76
    800020c2:	0000                	unimp
    800020c4:	015f 0000 03a9      	0x3a90000015f
    800020ca:	0000                	unimp
    800020cc:	021c                	addi	a5,sp,256
    800020ce:	0000                	unimp
    800020d0:	0120                	addi	s0,sp,136
    800020d2:	0000                	unimp
    800020d4:	0286                	slli	t0,t0,0x1
    800020d6:	0000                	unimp
    800020d8:	00000077          	0x77
    800020dc:	00a9                	addi	ra,ra,10
    800020de:	0000                	unimp
    800020e0:	00000267          	jalr	tp,zero
    800020e4:	0000020f          	0x20f
    800020e8:	025e                	slli	tp,tp,0x17
    800020ea:	0000                	unimp
    800020ec:	0121                	addi	sp,sp,8
    800020ee:	0000                	unimp
    800020f0:	0185                	addi	gp,gp,1
    800020f2:	0000                	unimp
    800020f4:	031c                	addi	a5,sp,384
    800020f6:	0000                	unimp
    800020f8:	015f 0000 0321      	0x3210000015f
    800020fe:	0000                	unimp
    80002100:	000001c7          	fmsub.s	ft3,ft0,ft0,ft0,rne
    80002104:	02d0                	addi	a2,sp,324
    80002106:	0000                	unimp
    80002108:	0116                	slli	sp,sp,0x5
    8000210a:	0000                	unimp
    8000210c:	02f6                	slli	t0,t0,0x1d
    8000210e:	0000                	unimp
    80002110:	0000016f          	jal	sp,80002110 <input_data2+0x130>
    80002114:	02e9                	addi	t0,t0,26
    80002116:	0000                	unimp
    80002118:	0166                	slli	sp,sp,0x19
    8000211a:	0000                	unimp
    8000211c:	005c                	addi	a5,sp,4
    8000211e:	0000                	unimp
    80002120:	0248                	addi	a0,sp,260
    80002122:	0000                	unimp
    80002124:	03dd                	addi	t2,t2,23
    80002126:	0000                	unimp
    80002128:	003e                	0x3e
    8000212a:	0000                	unimp
    8000212c:	0000010f          	0x10f
    80002130:	03d9                	addi	t2,t2,22
    80002132:	0000                	unimp
    80002134:	0355                	addi	t1,t1,21
    80002136:	0000                	unimp
    80002138:	00000193          	li	gp,0
    8000213c:	0314                	addi	a3,sp,384
    8000213e:	0000                	unimp
    80002140:	015a                	slli	sp,sp,0x16
    80002142:	0000                	unimp
    80002144:	00000213          	li	tp,0
    80002148:	0205                	addi	tp,tp,1
    8000214a:	0000                	unimp
    8000214c:	00de                	slli	ra,ra,0x17
    8000214e:	0000                	unimp
    80002150:	0000022f          	0x22f
    80002154:	01cd                	addi	gp,gp,19
    80002156:	0000                	unimp
    80002158:	038c                	addi	a1,sp,448
    8000215a:	0000                	unimp
    8000215c:	00f1                	addi	ra,ra,28
    8000215e:	0000                	unimp
    80002160:	00000307          	0x307
    80002164:	0166                	slli	sp,sp,0x19
    80002166:	0000                	unimp
    80002168:	00ff                	0xff
    8000216a:	0000                	unimp
    8000216c:	014c                	addi	a1,sp,132
    8000216e:	0000                	unimp

0000000080002170 <verify_data>:
    80002170:	00001f3b          	sllw	t5,zero,zero
    80002174:	c2fa                	sw	t5,68(sp)
    80002176:	33c00003          	lb	zero,828(zero) # 33c <_tbss_end+0x2f8>
    8000217a:	000c                	addi	a1,sp,0
    8000217c:	00035147          	fmsub.s	ft2,ft6,ft0,ft0,unknown
    80002180:	def8                	sw	a4,124(a3)
    80002182:	0004                	addi	s1,sp,0
    80002184:	000003d3          	fadd.s	ft7,ft0,ft0,rne
    80002188:	ffaa                	sd	a0,504(sp)
    8000218a:	0000                	unimp
    8000218c:	0bb1                	addi	s7,s7,12
    8000218e:	6ad5000f          	0x6ad5000f
    80002192:	88960007          	0x88960007
    80002196:	0004                	addi	s1,sp,0
    80002198:	823e                	mv	tp,a5
    8000219a:	b0840003          	lb	zero,-1272(s0)
    8000219e:	0000                	unimp
    800021a0:	5d54                	lw	a3,60(a0)
    800021a2:	0000                	unimp
    800021a4:	3400                	fld	fs0,40(s0)
    800021a6:	0000                	unimp
    800021a8:	00019b7b          	0x19b7b
    800021ac:	5476                	lw	s0,124(sp)
    800021ae:	0002                	0x2
    800021b0:	a798                	fsd	fa4,8(a5)
    800021b2:	12b80007          	0x12b80007
    800021b6:	0002                	0x2
    800021b8:	cc65                	beqz	s0,800022b0 <verify_data+0x140>
    800021ba:	0000                	unimp
    800021bc:	cf34                	sw	a3,88(a4)
    800021be:	0001                	nop
    800021c0:	baa0                	fsd	fs0,112(a3)
    800021c2:	0002                	0x2
    800021c4:	4180                	lw	s0,0(a1)
    800021c6:	0002                	0x2
    800021c8:	082e                	slli	a6,a6,0xb
    800021ca:	0000                	unimp
    800021cc:	b3ac                	fsd	fa1,96(a5)
    800021ce:	0008                	addi	a0,sp,0
    800021d0:	000200c7          	fmsub.s	ft1,ft4,ft0,ft0,rne
    800021d4:	00014f07          	0x14f07
    800021d8:	4a4a                	lw	s4,144(sp)
    800021da:	000c                	addi	a1,sp,0
    800021dc:	0006783b          	0x6783b
    800021e0:	4cb0                	lw	a2,88(s1)
    800021e2:	0005                	0x5
    800021e4:	e45c                	sd	a5,136(s0)
    800021e6:	0005                	0x5
    800021e8:	cbb0                	sw	a2,80(a5)
    800021ea:	0002                	0x2
    800021ec:	719c                	ld	a5,32(a1)
    800021ee:	0001                	nop
    800021f0:	7240                	ld	s0,160(a2)
    800021f2:	0008                	addi	a0,sp,0
    800021f4:	1938                	addi	a4,sp,184
    800021f6:	0000                	unimp
    800021f8:	a4aa                	fsd	fa0,72(sp)
    800021fa:	0001                	nop
    800021fc:	6e74                	ld	a3,216(a2)
    800021fe:	0009                	0x9
    80002200:	58d4                	lw	a3,52(s1)
    80002202:	0001                	nop
    80002204:	0bb8                	addi	a4,sp,472
    80002206:	0000                	unimp
    80002208:	16a8                	addi	a0,sp,872
    8000220a:	0001                	nop
    8000220c:	de94                	sw	a3,56(a3)
    8000220e:	0004                	addi	s1,sp,0
    80002210:	1b6c                	addi	a1,sp,444
    80002212:	c3500003          	lb	zero,-971(zero) # fffffffffffffc35 <_gp+0xffffffff7fffd135>
    80002216:	0000                	unimp
    80002218:	640e                	ld	s0,192(sp)
    8000221a:	0002                	0x2
    8000221c:	bf80                	fsd	fs0,56(a5)
    8000221e:	0005                	0x5
    80002220:	0d69                	addi	s10,s10,26
    80002222:	0004                	addi	s1,sp,0
    80002224:	69a1                	lui	s3,0x8
    80002226:	9f340007          	0x9f340007
    8000222a:	0002                	0x2
    8000222c:	2780                	fld	fs0,8(a5)
    8000222e:	0005                	0x5
    80002230:	2944                	fld	fs1,144(a0)
    80002232:	0002                	0x2
    80002234:	6e48                	ld	a0,152(a2)
    80002236:	0004                	addi	s1,sp,0
    80002238:	7586                	ld	a1,96(sp)
    8000223a:	a6fe0007          	0xa6fe0007
    8000223e:	0000                	unimp
    80002240:	068c                	addi	a1,sp,832
    80002242:	0009                	0x9
    80002244:	95a0                	0x95a0
    80002246:	0006                	0x6
    80002248:	d198                	sw	a4,32(a1)
    8000224a:	0001                	nop
    8000224c:	abd8                	fsd	fa4,144(a5)
    8000224e:	0000                	unimp
    80002250:	9ec0                	0x9ec0
    80002252:	0001                	nop
    80002254:	74f0                	ld	a2,232(s1)
    80002256:	0001                	nop
    80002258:	693a                	ld	s2,392(sp)
    8000225a:	000d                	0xd
    8000225c:	2038                	fld	fa4,64(s0)
    8000225e:	0002                	0x2
    80002260:	5e60                	lw	s0,124(a2)
    80002262:	0002                	0x2
    80002264:	60aa                	ld	ra,136(sp)
    80002266:	0006                	0x6
    80002268:	087f                	0x87f
    8000226a:	0001                	nop
    8000226c:	5005                	0x5005
    8000226e:	0001                	nop
    80002270:	e7ad                	bnez	a5,800022da <verify_data+0x16a>
    80002272:	0001                	nop
    80002274:	b528                	fsd	fa0,104(a0)
    80002276:	0000                	unimp
    80002278:	96d0                	0x96d0
    8000227a:	0002                	0x2
    8000227c:	199f 0003 8153      	0x81530003199f
    80002282:	0004                	addi	s1,sp,0
    80002284:	202c                	fld	fa1,64(s0)
    80002286:	0008                	addi	a0,sp,0
    80002288:	3ee2                	fld	ft9,56(sp)
    8000228a:	95570003          	lb	zero,-1707(a4)
    8000228e:	0004                	addi	s1,sp,0
    80002290:	8c39                	xor	s0,s0,a4
    80002292:	0db00003          	lb	zero,219(zero) # db <_tbss_end+0x97>
    80002296:	0006                	0x6
    80002298:	c976                	sw	t4,144(sp)
    8000229a:	0002                	0x2
    8000229c:	d370                	sw	a2,100(a4)
    8000229e:	000a                	0xa
    800022a0:	178d                	addi	a5,a5,-29
    800022a2:	0001                	nop
    800022a4:	bad0                	fsd	fa2,176(a3)
    800022a6:	0006                	0x6
    800022a8:	7146                	ld	sp,112(sp)
    800022aa:	0000                	unimp
    800022ac:	cc7c                	sw	a5,92(s0)
    800022ae:	0000                	unimp
    800022b0:	6118                	ld	a4,0(a0)
    800022b2:	0002                	0x2
    800022b4:	5dd8                	lw	a4,60(a1)
    800022b6:	000e                	0xe
    800022b8:	3776                	fld	fa4,376(sp)
    800022ba:	0000                	unimp
    800022bc:	4ee0                	lw	s0,92(a3)
    800022be:	10a90003          	lb	zero,266(s2)
    800022c2:	0005                	0x5
    800022c4:	99e8                	0x99e8
    800022c6:	ce100007          	0xce100007
    800022ca:	0005                	0x5
    800022cc:	bb3c                	fsd	fa5,112(a4)
    800022ce:	c31c0007          	0xc31c0007
    800022d2:	0004                	addi	s1,sp,0
    800022d4:	fb50                	sd	a2,176(a4)
    800022d6:	0002                	0x2
    800022d8:	e6b5                	bnez	a3,80002344 <_end+0x4>
    800022da:	0001                	nop
    800022dc:	a80e                	fsd	ft3,16(sp)
    800022de:	0001                	nop
    800022e0:	c99f 0007 4ea8      	0x4ea80007c99f
    800022e6:	0002                	0x2
    800022e8:	71b8                	ld	a4,96(a1)
    800022ea:	26a9000b          	0x26a9000b
    800022ee:	0001                	nop
    800022f0:	000b0883          	lb	a7,0(s6)
    800022f4:	3be0                	fld	fs0,240(a5)
    800022f6:	d5270003          	lb	zero,-686(a4)
    800022fa:	f7300003          	lb	zero,-141(zero) # ffffffffffffff73 <_gp+0xffffffff7fffd473>
    800022fe:	0001                	nop
